
bomb:     file format elf64-x86-64


Disassembly of section .init:

0000000000400a98 <_init>:
  400a98:	48 83 ec 08          	sub    $0x8,%rsp
  400a9c:	48 8b 05 55 35 20 00 	mov    0x203555(%rip),%rax        # 603ff8 <__gmon_start__>
  400aa3:	48 85 c0             	test   %rax,%rax
  400aa6:	74 05                	je     400aad <_init+0x15>
  400aa8:	e8 13 01 00 00       	callq  400bc0 <__gmon_start__@plt>
  400aad:	48 83 c4 08          	add    $0x8,%rsp
  400ab1:	c3                   	retq   

Disassembly of section .plt:

0000000000400ac0 <.plt>:
  400ac0:	ff 35 42 35 20 00    	pushq  0x203542(%rip)        # 604008 <_GLOBAL_OFFSET_TABLE_+0x8>
  400ac6:	ff 25 44 35 20 00    	jmpq   *0x203544(%rip)        # 604010 <_GLOBAL_OFFSET_TABLE_+0x10>
  400acc:	0f 1f 40 00          	nopl   0x0(%rax)

0000000000400ad0 <getenv@plt>:
  400ad0:	ff 25 42 35 20 00    	jmpq   *0x203542(%rip)        # 604018 <getenv@GLIBC_2.2.5>
  400ad6:	68 00 00 00 00       	pushq  $0x0
  400adb:	e9 e0 ff ff ff       	jmpq   400ac0 <.plt>

0000000000400ae0 <strcasecmp@plt>:
  400ae0:	ff 25 3a 35 20 00    	jmpq   *0x20353a(%rip)        # 604020 <strcasecmp@GLIBC_2.2.5>
  400ae6:	68 01 00 00 00       	pushq  $0x1
  400aeb:	e9 d0 ff ff ff       	jmpq   400ac0 <.plt>

0000000000400af0 <__errno_location@plt>:
  400af0:	ff 25 32 35 20 00    	jmpq   *0x203532(%rip)        # 604028 <__errno_location@GLIBC_2.2.5>
  400af6:	68 02 00 00 00       	pushq  $0x2
  400afb:	e9 c0 ff ff ff       	jmpq   400ac0 <.plt>

0000000000400b00 <strcpy@plt>:
  400b00:	ff 25 2a 35 20 00    	jmpq   *0x20352a(%rip)        # 604030 <strcpy@GLIBC_2.2.5>
  400b06:	68 03 00 00 00       	pushq  $0x3
  400b0b:	e9 b0 ff ff ff       	jmpq   400ac0 <.plt>

0000000000400b10 <puts@plt>:
  400b10:	ff 25 22 35 20 00    	jmpq   *0x203522(%rip)        # 604038 <puts@GLIBC_2.2.5>
  400b16:	68 04 00 00 00       	pushq  $0x4
  400b1b:	e9 a0 ff ff ff       	jmpq   400ac0 <.plt>

0000000000400b20 <write@plt>:
  400b20:	ff 25 1a 35 20 00    	jmpq   *0x20351a(%rip)        # 604040 <write@GLIBC_2.2.5>
  400b26:	68 05 00 00 00       	pushq  $0x5
  400b2b:	e9 90 ff ff ff       	jmpq   400ac0 <.plt>

0000000000400b30 <printf@plt>:
  400b30:	ff 25 12 35 20 00    	jmpq   *0x203512(%rip)        # 604048 <printf@GLIBC_2.2.5>
  400b36:	68 06 00 00 00       	pushq  $0x6
  400b3b:	e9 80 ff ff ff       	jmpq   400ac0 <.plt>

0000000000400b40 <alarm@plt>:
  400b40:	ff 25 0a 35 20 00    	jmpq   *0x20350a(%rip)        # 604050 <alarm@GLIBC_2.2.5>
  400b46:	68 07 00 00 00       	pushq  $0x7
  400b4b:	e9 70 ff ff ff       	jmpq   400ac0 <.plt>

0000000000400b50 <close@plt>:
  400b50:	ff 25 02 35 20 00    	jmpq   *0x203502(%rip)        # 604058 <close@GLIBC_2.2.5>
  400b56:	68 08 00 00 00       	pushq  $0x8
  400b5b:	e9 60 ff ff ff       	jmpq   400ac0 <.plt>

0000000000400b60 <read@plt>:
  400b60:	ff 25 fa 34 20 00    	jmpq   *0x2034fa(%rip)        # 604060 <read@GLIBC_2.2.5>
  400b66:	68 09 00 00 00       	pushq  $0x9
  400b6b:	e9 50 ff ff ff       	jmpq   400ac0 <.plt>

0000000000400b70 <__libc_start_main@plt>:
  400b70:	ff 25 f2 34 20 00    	jmpq   *0x2034f2(%rip)        # 604068 <__libc_start_main@GLIBC_2.2.5>
  400b76:	68 0a 00 00 00       	pushq  $0xa
  400b7b:	e9 40 ff ff ff       	jmpq   400ac0 <.plt>

0000000000400b80 <fgets@plt>:
  400b80:	ff 25 ea 34 20 00    	jmpq   *0x2034ea(%rip)        # 604070 <fgets@GLIBC_2.2.5>
  400b86:	68 0b 00 00 00       	pushq  $0xb
  400b8b:	e9 30 ff ff ff       	jmpq   400ac0 <.plt>

0000000000400b90 <signal@plt>:
  400b90:	ff 25 e2 34 20 00    	jmpq   *0x2034e2(%rip)        # 604078 <signal@GLIBC_2.2.5>
  400b96:	68 0c 00 00 00       	pushq  $0xc
  400b9b:	e9 20 ff ff ff       	jmpq   400ac0 <.plt>

0000000000400ba0 <gethostbyname@plt>:
  400ba0:	ff 25 da 34 20 00    	jmpq   *0x2034da(%rip)        # 604080 <gethostbyname@GLIBC_2.2.5>
  400ba6:	68 0d 00 00 00       	pushq  $0xd
  400bab:	e9 10 ff ff ff       	jmpq   400ac0 <.plt>

0000000000400bb0 <fprintf@plt>:
  400bb0:	ff 25 d2 34 20 00    	jmpq   *0x2034d2(%rip)        # 604088 <fprintf@GLIBC_2.2.5>
  400bb6:	68 0e 00 00 00       	pushq  $0xe
  400bbb:	e9 00 ff ff ff       	jmpq   400ac0 <.plt>

0000000000400bc0 <__gmon_start__@plt>:
  400bc0:	ff 25 ca 34 20 00    	jmpq   *0x2034ca(%rip)        # 604090 <__gmon_start__>
  400bc6:	68 0f 00 00 00       	pushq  $0xf
  400bcb:	e9 f0 fe ff ff       	jmpq   400ac0 <.plt>

0000000000400bd0 <memcpy@plt>:
  400bd0:	ff 25 c2 34 20 00    	jmpq   *0x2034c2(%rip)        # 604098 <memcpy@GLIBC_2.14>
  400bd6:	68 10 00 00 00       	pushq  $0x10
  400bdb:	e9 e0 fe ff ff       	jmpq   400ac0 <.plt>

0000000000400be0 <fflush@plt>:
  400be0:	ff 25 ba 34 20 00    	jmpq   *0x2034ba(%rip)        # 6040a0 <fflush@GLIBC_2.2.5>
  400be6:	68 11 00 00 00       	pushq  $0x11
  400beb:	e9 d0 fe ff ff       	jmpq   400ac0 <.plt>

0000000000400bf0 <__isoc99_sscanf@plt>:
  400bf0:	ff 25 b2 34 20 00    	jmpq   *0x2034b2(%rip)        # 6040a8 <__isoc99_sscanf@GLIBC_2.7>
  400bf6:	68 12 00 00 00       	pushq  $0x12
  400bfb:	e9 c0 fe ff ff       	jmpq   400ac0 <.plt>

0000000000400c00 <bcopy@plt>:
  400c00:	ff 25 aa 34 20 00    	jmpq   *0x2034aa(%rip)        # 6040b0 <bcopy@GLIBC_2.2.5>
  400c06:	68 13 00 00 00       	pushq  $0x13
  400c0b:	e9 b0 fe ff ff       	jmpq   400ac0 <.plt>

0000000000400c10 <fopen@plt>:
  400c10:	ff 25 a2 34 20 00    	jmpq   *0x2034a2(%rip)        # 6040b8 <fopen@GLIBC_2.2.5>
  400c16:	68 14 00 00 00       	pushq  $0x14
  400c1b:	e9 a0 fe ff ff       	jmpq   400ac0 <.plt>

0000000000400c20 <gethostname@plt>:
  400c20:	ff 25 9a 34 20 00    	jmpq   *0x20349a(%rip)        # 6040c0 <gethostname@GLIBC_2.2.5>
  400c26:	68 15 00 00 00       	pushq  $0x15
  400c2b:	e9 90 fe ff ff       	jmpq   400ac0 <.plt>

0000000000400c30 <sprintf@plt>:
  400c30:	ff 25 92 34 20 00    	jmpq   *0x203492(%rip)        # 6040c8 <sprintf@GLIBC_2.2.5>
  400c36:	68 16 00 00 00       	pushq  $0x16
  400c3b:	e9 80 fe ff ff       	jmpq   400ac0 <.plt>

0000000000400c40 <exit@plt>:
  400c40:	ff 25 8a 34 20 00    	jmpq   *0x20348a(%rip)        # 6040d0 <exit@GLIBC_2.2.5>
  400c46:	68 17 00 00 00       	pushq  $0x17
  400c4b:	e9 70 fe ff ff       	jmpq   400ac0 <.plt>

0000000000400c50 <connect@plt>:
  400c50:	ff 25 82 34 20 00    	jmpq   *0x203482(%rip)        # 6040d8 <connect@GLIBC_2.2.5>
  400c56:	68 18 00 00 00       	pushq  $0x18
  400c5b:	e9 60 fe ff ff       	jmpq   400ac0 <.plt>

0000000000400c60 <sleep@plt>:
  400c60:	ff 25 7a 34 20 00    	jmpq   *0x20347a(%rip)        # 6040e0 <sleep@GLIBC_2.2.5>
  400c66:	68 19 00 00 00       	pushq  $0x19
  400c6b:	e9 50 fe ff ff       	jmpq   400ac0 <.plt>

0000000000400c70 <__ctype_b_loc@plt>:
  400c70:	ff 25 72 34 20 00    	jmpq   *0x203472(%rip)        # 6040e8 <__ctype_b_loc@GLIBC_2.3>
  400c76:	68 1a 00 00 00       	pushq  $0x1a
  400c7b:	e9 40 fe ff ff       	jmpq   400ac0 <.plt>

0000000000400c80 <socket@plt>:
  400c80:	ff 25 6a 34 20 00    	jmpq   *0x20346a(%rip)        # 6040f0 <socket@GLIBC_2.2.5>
  400c86:	68 1b 00 00 00       	pushq  $0x1b
  400c8b:	e9 30 fe ff ff       	jmpq   400ac0 <.plt>

Disassembly of section .text:

0000000000400c90 <_start>:
  400c90:	31 ed                	xor    %ebp,%ebp
  400c92:	49 89 d1             	mov    %rdx,%r9
  400c95:	5e                   	pop    %rsi
  400c96:	48 89 e2             	mov    %rsp,%rdx
  400c99:	48 83 e4 f0          	and    $0xfffffffffffffff0,%rsp
  400c9d:	50                   	push   %rax
  400c9e:	54                   	push   %rsp
  400c9f:	49 c7 c0 20 29 40 00 	mov    $0x402920,%r8
  400ca6:	48 c7 c1 b0 28 40 00 	mov    $0x4028b0,%rcx
  400cad:	48 c7 c7 7d 0d 40 00 	mov    $0x400d7d,%rdi
  400cb4:	e8 b7 fe ff ff       	callq  400b70 <__libc_start_main@plt>
  400cb9:	f4                   	hlt    
  400cba:	66 0f 1f 44 00 00    	nopw   0x0(%rax,%rax,1)

0000000000400cc0 <deregister_tm_clones>:
  400cc0:	b8 07 46 60 00       	mov    $0x604607,%eax
  400cc5:	55                   	push   %rbp
  400cc6:	48 2d 00 46 60 00    	sub    $0x604600,%rax
  400ccc:	48 83 f8 0e          	cmp    $0xe,%rax
  400cd0:	48 89 e5             	mov    %rsp,%rbp
  400cd3:	77 02                	ja     400cd7 <deregister_tm_clones+0x17>
  400cd5:	5d                   	pop    %rbp
  400cd6:	c3                   	retq   
  400cd7:	b8 00 00 00 00       	mov    $0x0,%eax
  400cdc:	48 85 c0             	test   %rax,%rax
  400cdf:	74 f4                	je     400cd5 <deregister_tm_clones+0x15>
  400ce1:	5d                   	pop    %rbp
  400ce2:	bf 00 46 60 00       	mov    $0x604600,%edi
  400ce7:	ff e0                	jmpq   *%rax
  400ce9:	0f 1f 80 00 00 00 00 	nopl   0x0(%rax)

0000000000400cf0 <register_tm_clones>:
  400cf0:	b8 00 46 60 00       	mov    $0x604600,%eax
  400cf5:	55                   	push   %rbp
  400cf6:	48 2d 00 46 60 00    	sub    $0x604600,%rax
  400cfc:	48 c1 f8 03          	sar    $0x3,%rax
  400d00:	48 89 e5             	mov    %rsp,%rbp
  400d03:	48 89 c2             	mov    %rax,%rdx
  400d06:	48 c1 ea 3f          	shr    $0x3f,%rdx
  400d0a:	48 01 d0             	add    %rdx,%rax
  400d0d:	48 d1 f8             	sar    %rax
  400d10:	75 02                	jne    400d14 <register_tm_clones+0x24>
  400d12:	5d                   	pop    %rbp
  400d13:	c3                   	retq   
  400d14:	ba 00 00 00 00       	mov    $0x0,%edx
  400d19:	48 85 d2             	test   %rdx,%rdx
  400d1c:	74 f4                	je     400d12 <register_tm_clones+0x22>
  400d1e:	5d                   	pop    %rbp
  400d1f:	48 89 c6             	mov    %rax,%rsi
  400d22:	bf 00 46 60 00       	mov    $0x604600,%edi
  400d27:	ff e2                	jmpq   *%rdx
  400d29:	0f 1f 80 00 00 00 00 	nopl   0x0(%rax)

0000000000400d30 <__do_global_dtors_aux>:
  400d30:	80 3d e1 38 20 00 00 	cmpb   $0x0,0x2038e1(%rip)        # 604618 <completed.6355>
  400d37:	75 11                	jne    400d4a <__do_global_dtors_aux+0x1a>
  400d39:	55                   	push   %rbp
  400d3a:	48 89 e5             	mov    %rsp,%rbp
  400d3d:	e8 7e ff ff ff       	callq  400cc0 <deregister_tm_clones>
  400d42:	5d                   	pop    %rbp
  400d43:	c6 05 ce 38 20 00 01 	movb   $0x1,0x2038ce(%rip)        # 604618 <completed.6355>
  400d4a:	f3 c3                	repz retq 
  400d4c:	0f 1f 40 00          	nopl   0x0(%rax)

0000000000400d50 <frame_dummy>:
  400d50:	48 83 3d c8 30 20 00 	cmpq   $0x0,0x2030c8(%rip)        # 603e20 <__JCR_END__>
  400d57:	00 
  400d58:	74 1e                	je     400d78 <frame_dummy+0x28>
  400d5a:	b8 00 00 00 00       	mov    $0x0,%eax
  400d5f:	48 85 c0             	test   %rax,%rax
  400d62:	74 14                	je     400d78 <frame_dummy+0x28>
  400d64:	55                   	push   %rbp
  400d65:	bf 20 3e 60 00       	mov    $0x603e20,%edi
  400d6a:	48 89 e5             	mov    %rsp,%rbp
  400d6d:	ff d0                	callq  *%rax
  400d6f:	5d                   	pop    %rbp
  400d70:	e9 7b ff ff ff       	jmpq   400cf0 <register_tm_clones>
  400d75:	0f 1f 00             	nopl   (%rax)
  400d78:	e9 73 ff ff ff       	jmpq   400cf0 <register_tm_clones>

0000000000400d7d <main>:
  400d7d:	55                   	push   %rbp
  400d7e:	53                   	push   %rbx
  400d7f:	48 83 ec 08          	sub    $0x8,%rsp
  400d83:	89 fb                	mov    %edi,%ebx
  400d85:	83 ff 01             	cmp    $0x1,%edi
  400d88:	75 10                	jne    400d9a <main+0x1d>
  400d8a:	48 8b 05 77 38 20 00 	mov    0x203877(%rip),%rax        # 604608 <stdin@@GLIBC_2.2.5>
  400d91:	48 89 05 90 38 20 00 	mov    %rax,0x203890(%rip)        # 604628 <infile>
  400d98:	eb 5a                	jmp    400df4 <main+0x77>
  400d9a:	48 89 f5             	mov    %rsi,%rbp
  400d9d:	83 ff 02             	cmp    $0x2,%edi
  400da0:	75 36                	jne    400dd8 <main+0x5b>
  400da2:	48 8b 7e 08          	mov    0x8(%rsi),%rdi
  400da6:	be 50 29 40 00       	mov    $0x402950,%esi
  400dab:	e8 60 fe ff ff       	callq  400c10 <fopen@plt>
  400db0:	48 89 05 71 38 20 00 	mov    %rax,0x203871(%rip)        # 604628 <infile>
  400db7:	48 85 c0             	test   %rax,%rax
  400dba:	75 38                	jne    400df4 <main+0x77>
  400dbc:	48 8b 55 08          	mov    0x8(%rbp),%rdx
  400dc0:	48 8b 75 00          	mov    0x0(%rbp),%rsi
  400dc4:	bf 52 29 40 00       	mov    $0x402952,%edi
  400dc9:	e8 62 fd ff ff       	callq  400b30 <printf@plt>
  400dce:	bf 08 00 00 00       	mov    $0x8,%edi
  400dd3:	e8 68 fe ff ff       	callq  400c40 <exit@plt>
  400dd8:	48 8b 36             	mov    (%rsi),%rsi
  400ddb:	bf 6f 29 40 00       	mov    $0x40296f,%edi
  400de0:	b8 00 00 00 00       	mov    $0x0,%eax
  400de5:	e8 46 fd ff ff       	callq  400b30 <printf@plt>
  400dea:	bf 08 00 00 00       	mov    $0x8,%edi
  400def:	e8 4c fe ff ff       	callq  400c40 <exit@plt>
  400df4:	e8 8e 05 00 00       	callq  401387 <initialize_bomb>
  400df9:	89 df                	mov    %ebx,%edi
  400dfb:	b8 00 00 00 00       	mov    $0x0,%eax
  400e00:	e8 3b 06 00 00       	callq  401440 <welcome_message>
  400e05:	e8 3e 0e 00 00       	callq  401c48 <read_line>
  400e0a:	48 89 c7             	mov    %rax,%rdi
  400e0d:	e8 ae 00 00 00       	callq  400ec0 <phase_1>
  400e12:	e8 20 08 00 00       	callq  401637 <phase_defused>
  400e17:	bf a8 29 40 00       	mov    $0x4029a8,%edi
  400e1c:	e8 ef fc ff ff       	callq  400b10 <puts@plt>
  400e21:	e8 22 0e 00 00       	callq  401c48 <read_line>
  400e26:	48 89 c7             	mov    %rax,%rdi
  400e29:	e8 ad 00 00 00       	callq  400edb <phase_2>
  400e2e:	e8 04 08 00 00       	callq  401637 <phase_defused>
  400e33:	bf e8 29 40 00       	mov    $0x4029e8,%edi
  400e38:	e8 d3 fc ff ff       	callq  400b10 <puts@plt>
  400e3d:	e8 06 0e 00 00       	callq  401c48 <read_line>
  400e42:	48 89 c7             	mov    %rax,%rdi
  400e45:	e8 49 01 00 00       	callq  400f93 <phase_3>
  400e4a:	e8 e8 07 00 00       	callq  401637 <phase_defused>
  400e4f:	bf 10 2a 40 00       	mov    $0x402a10,%edi
  400e54:	e8 b7 fc ff ff       	callq  400b10 <puts@plt>
  400e59:	e8 ea 0d 00 00       	callq  401c48 <read_line>
  400e5e:	48 89 c7             	mov    %rax,%rdi
  400e61:	e8 92 01 00 00       	callq  400ff8 <phase_4>
  400e66:	e8 cc 07 00 00       	callq  401637 <phase_defused>
  400e6b:	bf 38 2a 40 00       	mov    $0x402a38,%edi
  400e70:	e8 9b fc ff ff       	callq  400b10 <puts@plt>
  400e75:	e8 ce 0d 00 00       	callq  401c48 <read_line>
  400e7a:	48 89 c7             	mov    %rax,%rdi
  400e7d:	e8 1b 02 00 00       	callq  40109d <phase_5>
  400e82:	e8 b0 07 00 00       	callq  401637 <phase_defused>
  400e87:	bf 70 2a 40 00       	mov    $0x402a70,%edi
  400e8c:	e8 7f fc ff ff       	callq  400b10 <puts@plt>
  400e91:	e8 b2 0d 00 00       	callq  401c48 <read_line>
  400e96:	48 89 c7             	mov    %rax,%rdi
  400e99:	e8 50 02 00 00       	callq  4010ee <phase_6>
  400e9e:	e8 94 07 00 00       	callq  401637 <phase_defused>
  400ea3:	bf 89 29 40 00       	mov    $0x402989,%edi
  400ea8:	e8 63 fc ff ff       	callq  400b10 <puts@plt>
  400ead:	b8 00 00 00 00       	mov    $0x0,%eax
  400eb2:	48 83 c4 08          	add    $0x8,%rsp
  400eb6:	5b                   	pop    %rbx
  400eb7:	5d                   	pop    %rbp
  400eb8:	c3                   	retq   
  400eb9:	0f 1f 80 00 00 00 00 	nopl   0x0(%rax)

0000000000400ec0 <phase_1>:
  400ec0:	53                   	push   %rbx
  400ec1:	48 89 fb             	mov    %rdi,%rbx
  400ec4:	80 7f 01 00          	cmpb   $0x0,0x1(%rdi)
  400ec8:	74 05                	je     400ecf <phase_1+0xf>
  400eca:	e8 a1 07 00 00       	callq  401670 <explode_bomb>
  400ecf:	80 3b 70             	cmpb   $0x70,(%rbx)
  400ed2:	74 05                	je     400ed9 <phase_1+0x19>
  400ed4:	e8 97 07 00 00       	callq  401670 <explode_bomb>
  400ed9:	5b                   	pop    %rbx
  400eda:	c3                   	retq   

0000000000400edb <phase_2>:
  400edb:	41 54                	push   %r12
  400edd:	55                   	push   %rbp
  400ede:	53                   	push   %rbx
  400edf:	48 83 ec 20          	sub    $0x20,%rsp
  400ee3:	48 89 e6             	mov    %rsp,%rsi
  400ee6:	e8 1b 0d 00 00       	callq  401c06 <read_six_numbers>
  400eeb:	83 3c 24 00          	cmpl   $0x0,(%rsp)
  400eef:	79 40                	jns    400f31 <phase_2+0x56>
  400ef1:	e8 7a 07 00 00       	callq  401670 <explode_bomb>
  400ef6:	eb 39                	jmp    400f31 <phase_2+0x56>
  400ef8:	49 89 dc             	mov    %rbx,%r12
  400efb:	89 e8                	mov    %ebp,%eax
  400efd:	03 43 fc             	add    -0x4(%rbx),%eax
  400f00:	39 03                	cmp    %eax,(%rbx)
  400f02:	74 05                	je     400f09 <phase_2+0x2e>
  400f04:	e8 67 07 00 00       	callq  401670 <explode_bomb>
  400f09:	41 8b 04 24          	mov    (%r12),%eax
  400f0d:	89 05 09 37 20 00    	mov    %eax,0x203709(%rip)        # 60461c <last>
  400f13:	83 c5 01             	add    $0x1,%ebp
  400f16:	48 83 c3 04          	add    $0x4,%rbx
  400f1a:	83 fd 06             	cmp    $0x6,%ebp
  400f1d:	75 d9                	jne    400ef8 <phase_2+0x1d>
  400f1f:	8b 05 f7 36 20 00    	mov    0x2036f7(%rip),%eax        # 60461c <last>
  400f25:	83 f8 0f             	cmp    $0xf,%eax
  400f28:	75 13                	jne    400f3d <phase_2+0x62>
  400f2a:	e8 41 07 00 00       	callq  401670 <explode_bomb>
  400f2f:	eb 0c                	jmp    400f3d <phase_2+0x62>
  400f31:	48 8d 5c 24 04       	lea    0x4(%rsp),%rbx
  400f36:	bd 01 00 00 00       	mov    $0x1,%ebp
  400f3b:	eb bb                	jmp    400ef8 <phase_2+0x1d>
  400f3d:	48 83 c4 20          	add    $0x20,%rsp
  400f41:	5b                   	pop    %rbx
  400f42:	5d                   	pop    %rbp
  400f43:	41 5c                	pop    %r12
  400f45:	c3                   	retq   

0000000000400f46 <func_switch>:
  400f46:	83 ff 07             	cmp    $0x7,%edi
  400f49:	77 2d                	ja     400f78 <func_switch+0x32>
  400f4b:	89 ff                	mov    %edi,%edi
  400f4d:	ff 24 fd a0 2a 40 00 	jmpq   *0x402aa0(,%rdi,8)
  400f54:	b8 b0 02 00 00       	mov    $0x2b0,%eax
  400f59:	c3                   	retq   
  400f5a:	b8 53 00 00 00       	mov    $0x53,%eax
  400f5f:	c3                   	retq   
  400f60:	b8 13 02 00 00       	mov    $0x213,%eax
  400f65:	c3                   	retq   
  400f66:	b8 c8 00 00 00       	mov    $0xc8,%eax
  400f6b:	c3                   	retq   
  400f6c:	b8 be 00 00 00       	mov    $0xbe,%eax
  400f71:	c3                   	retq   
  400f72:	b8 b6 03 00 00       	mov    $0x3b6,%eax
  400f77:	c3                   	retq   
  400f78:	48 83 ec 08          	sub    $0x8,%rsp
  400f7c:	e8 ef 06 00 00       	callq  401670 <explode_bomb>
  400f81:	b8 00 00 00 00       	mov    $0x0,%eax
  400f86:	eb 06                	jmp    400f8e <func_switch+0x48>
  400f88:	b8 a7 01 00 00       	mov    $0x1a7,%eax
  400f8d:	c3                   	retq   
  400f8e:	48 83 c4 08          	add    $0x8,%rsp
  400f92:	c3                   	retq   

0000000000400f93 <phase_3>:
  400f93:	53                   	push   %rbx
  400f94:	48 83 ec 10          	sub    $0x10,%rsp
  400f98:	c7 44 24 0c 00 00 00 	movl   $0x0,0xc(%rsp)
  400f9f:	00 
  400fa0:	c7 44 24 08 00 00 00 	movl   $0x0,0x8(%rsp)
  400fa7:	00 
  400fa8:	48 8d 4c 24 08       	lea    0x8(%rsp),%rcx
  400fad:	48 8d 54 24 0c       	lea    0xc(%rsp),%rdx
  400fb2:	be a9 31 40 00       	mov    $0x4031a9,%esi
  400fb7:	b8 00 00 00 00       	mov    $0x0,%eax
  400fbc:	e8 2f fc ff ff       	callq  400bf0 <__isoc99_sscanf@plt>
  400fc1:	83 f8 01             	cmp    $0x1,%eax
  400fc4:	7e 0a                	jle    400fd0 <phase_3+0x3d>
  400fc6:	8b 44 24 08          	mov    0x8(%rsp),%eax
  400fca:	39 44 24 0c          	cmp    %eax,0xc(%rsp)
  400fce:	75 05                	jne    400fd5 <phase_3+0x42>
  400fd0:	e8 9b 06 00 00       	callq  401670 <explode_bomb>
  400fd5:	8b 7c 24 0c          	mov    0xc(%rsp),%edi
  400fd9:	e8 68 ff ff ff       	callq  400f46 <func_switch>
  400fde:	89 c3                	mov    %eax,%ebx
  400fe0:	8b 7c 24 08          	mov    0x8(%rsp),%edi
  400fe4:	e8 5d ff ff ff       	callq  400f46 <func_switch>
  400fe9:	39 c3                	cmp    %eax,%ebx
  400feb:	74 05                	je     400ff2 <phase_3+0x5f>
  400fed:	e8 7e 06 00 00       	callq  401670 <explode_bomb>
  400ff2:	48 83 c4 10          	add    $0x10,%rsp
  400ff6:	5b                   	pop    %rbx
  400ff7:	c3                   	retq   

0000000000400ff8 <phase_4>:
  400ff8:	48 83 ec 18          	sub    $0x18,%rsp
  400ffc:	48 8d 4c 24 08       	lea    0x8(%rsp),%rcx
  401001:	48 8d 54 24 0c       	lea    0xc(%rsp),%rdx
  401006:	be a9 31 40 00       	mov    $0x4031a9,%esi
  40100b:	b8 00 00 00 00       	mov    $0x0,%eax
  401010:	e8 db fb ff ff       	callq  400bf0 <__isoc99_sscanf@plt>
  401015:	83 f8 01             	cmp    $0x1,%eax
  401018:	7f 05                	jg     40101f <phase_4+0x27>
  40101a:	e8 51 06 00 00       	callq  401670 <explode_bomb>
  40101f:	8b 44 24 0c          	mov    0xc(%rsp),%eax
  401023:	83 e0 0f             	and    $0xf,%eax
  401026:	89 44 24 0c          	mov    %eax,0xc(%rsp)
  40102a:	83 f8 0f             	cmp    $0xf,%eax
  40102d:	74 2c                	je     40105b <phase_4+0x63>
  40102f:	b9 00 00 00 00       	mov    $0x0,%ecx
  401034:	ba 00 00 00 00       	mov    $0x0,%edx
  401039:	83 c2 01             	add    $0x1,%edx
  40103c:	48 98                	cltq   
  40103e:	8b 04 85 e0 2a 40 00 	mov    0x402ae0(,%rax,4),%eax
  401045:	01 c1                	add    %eax,%ecx
  401047:	83 f8 0f             	cmp    $0xf,%eax
  40104a:	75 ed                	jne    401039 <phase_4+0x41>
  40104c:	89 44 24 0c          	mov    %eax,0xc(%rsp)
  401050:	83 fa 0f             	cmp    $0xf,%edx
  401053:	75 06                	jne    40105b <phase_4+0x63>
  401055:	3b 4c 24 08          	cmp    0x8(%rsp),%ecx
  401059:	74 05                	je     401060 <phase_4+0x68>
  40105b:	e8 10 06 00 00       	callq  401670 <explode_bomb>
  401060:	48 83 c4 18          	add    $0x18,%rsp
  401064:	c3                   	retq   

0000000000401065 <func_rec>:
  401065:	41 54                	push   %r12
  401067:	55                   	push   %rbp
  401068:	53                   	push   %rbx
  401069:	89 fb                	mov    %edi,%ebx
  40106b:	85 ff                	test   %edi,%edi
  40106d:	7e 24                	jle    401093 <func_rec+0x2e>
  40106f:	89 f5                	mov    %esi,%ebp
  401071:	89 f0                	mov    %esi,%eax
  401073:	83 ff 01             	cmp    $0x1,%edi
  401076:	74 20                	je     401098 <func_rec+0x33>
  401078:	8d 7f ff             	lea    -0x1(%rdi),%edi
  40107b:	e8 e5 ff ff ff       	callq  401065 <func_rec>
  401080:	44 8d 24 28          	lea    (%rax,%rbp,1),%r12d
  401084:	8d 7b fe             	lea    -0x2(%rbx),%edi
  401087:	89 ee                	mov    %ebp,%esi
  401089:	e8 d7 ff ff ff       	callq  401065 <func_rec>
  40108e:	44 01 e0             	add    %r12d,%eax
  401091:	eb 05                	jmp    401098 <func_rec+0x33>
  401093:	b8 00 00 00 00       	mov    $0x0,%eax
  401098:	5b                   	pop    %rbx
  401099:	5d                   	pop    %rbp
  40109a:	41 5c                	pop    %r12
  40109c:	c3                   	retq   

000000000040109d <phase_5>:
  40109d:	48 83 ec 18          	sub    $0x18,%rsp
  4010a1:	48 8d 4c 24 0c       	lea    0xc(%rsp),%rcx
  4010a6:	48 8d 54 24 08       	lea    0x8(%rsp),%rdx
  4010ab:	be a9 31 40 00       	mov    $0x4031a9,%esi
  4010b0:	b8 00 00 00 00       	mov    $0x0,%eax
  4010b5:	e8 36 fb ff ff       	callq  400bf0 <__isoc99_sscanf@plt>
  4010ba:	83 f8 02             	cmp    $0x2,%eax
  4010bd:	75 0c                	jne    4010cb <phase_5+0x2e>
  4010bf:	8b 44 24 0c          	mov    0xc(%rsp),%eax
  4010c3:	83 e8 02             	sub    $0x2,%eax
  4010c6:	83 f8 02             	cmp    $0x2,%eax
  4010c9:	76 05                	jbe    4010d0 <phase_5+0x33>
  4010cb:	e8 a0 05 00 00       	callq  401670 <explode_bomb>
  4010d0:	8b 74 24 0c          	mov    0xc(%rsp),%esi
  4010d4:	bf 09 00 00 00       	mov    $0x9,%edi
  4010d9:	e8 87 ff ff ff       	callq  401065 <func_rec>
  4010de:	3b 44 24 08          	cmp    0x8(%rsp),%eax
  4010e2:	74 05                	je     4010e9 <phase_5+0x4c>
  4010e4:	e8 87 05 00 00       	callq  401670 <explode_bomb>
  4010e9:	48 83 c4 18          	add    $0x18,%rsp
  4010ed:	c3                   	retq   

00000000004010ee <phase_6>:
  4010ee:	41 55                	push   %r13
  4010f0:	41 54                	push   %r12
  4010f2:	55                   	push   %rbp
  4010f3:	53                   	push   %rbx
  4010f4:	48 83 ec 58          	sub    $0x58,%rsp
  4010f8:	48 8d 74 24 30       	lea    0x30(%rsp),%rsi
  4010fd:	e8 04 0b 00 00       	callq  401c06 <read_six_numbers>
  401102:	4c 8d 6c 24 30       	lea    0x30(%rsp),%r13
  401107:	41 bc 00 00 00 00    	mov    $0x0,%r12d
  40110d:	4c 89 ed             	mov    %r13,%rbp
  401110:	41 8b 45 00          	mov    0x0(%r13),%eax
  401114:	83 e8 01             	sub    $0x1,%eax
  401117:	83 f8 05             	cmp    $0x5,%eax
  40111a:	76 05                	jbe    401121 <phase_6+0x33>
  40111c:	e8 4f 05 00 00       	callq  401670 <explode_bomb>
  401121:	41 83 c4 01          	add    $0x1,%r12d
  401125:	41 83 fc 06          	cmp    $0x6,%r12d
  401129:	75 07                	jne    401132 <phase_6+0x44>
  40112b:	be 00 00 00 00       	mov    $0x0,%esi
  401130:	eb 42                	jmp    401174 <phase_6+0x86>
  401132:	44 89 e3             	mov    %r12d,%ebx
  401135:	48 63 c3             	movslq %ebx,%rax
  401138:	8b 44 84 30          	mov    0x30(%rsp,%rax,4),%eax
  40113c:	39 45 00             	cmp    %eax,0x0(%rbp)
  40113f:	75 05                	jne    401146 <phase_6+0x58>
  401141:	e8 2a 05 00 00       	callq  401670 <explode_bomb>
  401146:	83 c3 01             	add    $0x1,%ebx
  401149:	83 fb 05             	cmp    $0x5,%ebx
  40114c:	7e e7                	jle    401135 <phase_6+0x47>
  40114e:	49 83 c5 04          	add    $0x4,%r13
  401152:	eb b9                	jmp    40110d <phase_6+0x1f>
  401154:	48 8b 52 08          	mov    0x8(%rdx),%rdx
  401158:	83 c0 01             	add    $0x1,%eax
  40115b:	39 c8                	cmp    %ecx,%eax
  40115d:	75 f5                	jne    401154 <phase_6+0x66>
  40115f:	eb 05                	jmp    401166 <phase_6+0x78>
  401161:	ba 60 41 60 00       	mov    $0x604160,%edx
  401189:	48 8b 1c 24          	mov    (%rsp),%rbx
  40118d:	48 8d 44 24 08       	lea    0x8(%rsp),%rax
  401192:	48 8d 74 24 30       	lea    0x30(%rsp),%rsi
  401197:	48 89 d9             	mov    %rbx,%rcx
  40119a:	48 8b 10             	mov    (%rax),%rdx
  40119d:	48 89 51 08          	mov    %rdx,0x8(%rcx)
  4011a1:	48 83 c0 08          	add    $0x8,%rax
  4011a5:	48 39 f0             	cmp    %rsi,%rax
  4011a8:	74 05                	je     4011af <phase_6+0xc1>
  4011aa:	48 89 d1             	mov    %rdx,%rcx
  4011ad:	eb eb                	jmp    40119a <phase_6+0xac>
  4011af:	48 c7 42 08 00 00 00 	movq   $0x0,0x8(%rdx)
  4011b6:	00 
  4011b7:	bd 05 00 00 00       	mov    $0x5,%ebp
  4011bc:	48 8b 43 08          	mov    0x8(%rbx),%rax
  4011c0:	8b 00                	mov    (%rax),%eax
  4011c2:	39 03                	cmp    %eax,(%rbx)
  4011c4:	7e 05                	jle    4011cb <phase_6+0xdd>
  4011c6:	e8 a5 04 00 00       	callq  401670 <explode_bomb>
  4011cb:	48 8b 5b 08          	mov    0x8(%rbx),%rbx
  4011cf:	83 ed 01             	sub    $0x1,%ebp
  4011d2:	75 e8                	jne    4011bc <phase_6+0xce>
  4011d4:	8b 05 42 34 20 00    	mov    0x203442(%rip),%eax        # 60461c <last>
  4011da:	83 f8 21             	cmp    $0x21,%eax
  4011dd:	75 05                	jne    4011e4 <phase_6+0xf6>
  4011df:	e8 8c 04 00 00       	callq  401670 <explode_bomb>
  4011e4:	48 83 c4 58          	add    $0x58,%rsp
  4011e8:	5b                   	pop    %rbx
  4011e9:	5d                   	pop    %rbp
  4011ea:	41 5c                	pop    %r12
  4011ec:	41 5d                	pop    %r13
  4011ee:	c3                   	retq   

00000000004011ef <s3cret_ph4se>:
  4011ef:	41 55                	push   %r13
  4011f1:	41 54                	push   %r12
  4011f3:	55                   	push   %rbp
  4011f4:	53                   	push   %rbx
  4011f5:	48 83 ec 08          	sub    $0x8,%rsp
  4011f9:	e8 4a 0a 00 00       	callq  401c48 <read_line>
  4011fe:	49 89 c5             	mov    %rax,%r13
  401201:	bb 00 00 00 00       	mov    $0x0,%ebx
  401206:	bd 01 00 00 00       	mov    $0x1,%ebp
  40120b:	41 bc 01 00 00 00    	mov    $0x1,%r12d // r12d = 1; ebp = 1; ebx = 0
  401211:	41 0f b6 54 1d 00    	movzbl 0x0(%r13,%rbx,1),%edx
===========================================================================
  401217:	80 fa 64             	cmp    $0x64,%dl
  40121a:	75 05                	jne    401221 <s3cret_ph4se+0x32>
  40121c:	83 ed 01             	sub    $0x1,%ebp
  40121f:	eb 25                	jmp    401246 <s3cret_ph4se+0x57> // r12d = 1; ebp = 0; ebx = 0
===========================================================================
  401221:	80 fa 76             	cmp    $0x76,%dl
  401224:	75 06                	jne    40122c <s3cret_ph4se+0x3d>
  401226:	41 83 ec 01          	sub    $0x1,%r12d
  40122a:	eb 1a                	jmp    401246 <s3cret_ph4se+0x57> // r12d = 0; ebp = 1; ebx = 0
===========================================================================
  40122c:	80 fa 65             	cmp    $0x65,%dl
  40122f:	75 05                	jne    401236 <s3cret_ph4se+0x47>
  401231:	83 c5 01             	add    $0x1,%ebp
  401234:	eb 10                	jmp    401246 <s3cret_ph4se+0x57> // r12d = 1; ebp = 2; ebx = 0
===========================================================================
  401236:	80 fa 69             	cmp    $0x69,%dl
  401239:	75 06                	jne    401241 <s3cret_ph4se+0x52>
  40123b:	41 83 c4 01          	add    $0x1,%r12d
  40123f:	eb 05                	jmp    401246 <s3cret_ph4se+0x57> // r12d = 2; ebp = 1; ebx = 0
===========================================================================
  401241:	e8 2a 04 00 00       	callq  401670 <explode_bomb>
  401246:	44 89 e0             	mov    %r12d,%eax
  401249:	89 ea                	mov    %ebp,%edx
  40124b:	0f b6 94 d0 20 41 60 	movzbl 0x604120(%rax,%rdx,8),%edx
  401252:	00 
  401253:	80 fa ff             	cmp    $0xff,%dl
  401256:	75 07                	jne    40125f <s3cret_ph4se+0x70>
  401258:	e8 13 04 00 00       	callq  401670 <explode_bomb>
  40125d:	eb 16                	jmp    401275 <s3cret_ph4se+0x86>
===========================================================================
  40125f:	80 fa 21             	cmp    $0x21,%dl
  401262:	75 11                	jne    401275 <s3cret_ph4se+0x86>
===========================================================================
  401264:	bf 20 2b 40 00       	mov    $0x402b20,%edi
  401269:	e8 a2 f8 ff ff       	callq  400b10 <puts@plt>
  40126e:	e8 c4 03 00 00       	callq  401637 <phase_defused>
  401273:	eb 0f                	jmp    401284 <s3cret_ph4se+0x95>
  401275:	48 83 c3 01          	add    $0x1,%rbx
  401279:	48 83 fb 64          	cmp    $0x64,%rbx
  40127d:	75 92                	jne    401211 <s3cret_ph4se+0x22>
  40127f:	e8 ec 03 00 00       	callq  401670 <explode_bomb>
  401284:	48 83 c4 08          	add    $0x8,%rsp
  401288:	5b                   	pop    %rbx
  401289:	5d                   	pop    %rbp
  40128a:	41 5c                	pop    %r12
  40128c:	41 5d                	pop    %r13
  40128e:	c3                   	retq   
  40128f:	90                   	nop

0000000000401290 <sig_handler>:
  401290:	48 83 ec 08          	sub    $0x8,%rsp
  401294:	bf 48 2b 40 00       	mov    $0x402b48,%edi
  401299:	e8 72 f8 ff ff       	callq  400b10 <puts@plt>
  40129e:	bf 03 00 00 00       	mov    $0x3,%edi
  4012a3:	e8 b8 f9 ff ff       	callq  400c60 <sleep@plt>
  4012a8:	bf cb 30 40 00       	mov    $0x4030cb,%edi
  4012ad:	b8 00 00 00 00       	mov    $0x0,%eax
  4012b2:	e8 79 f8 ff ff       	callq  400b30 <printf@plt>
  4012b7:	48 8b 3d 42 33 20 00 	mov    0x203342(%rip),%rdi        # 604600 <stdout@@GLIBC_2.2.5>
  4012be:	e8 1d f9 ff ff       	callq  400be0 <fflush@plt>
  4012c3:	bf 01 00 00 00       	mov    $0x1,%edi
  4012c8:	e8 93 f9 ff ff       	callq  400c60 <sleep@plt>
  4012cd:	bf d3 30 40 00       	mov    $0x4030d3,%edi
  4012d2:	e8 39 f8 ff ff       	callq  400b10 <puts@plt>
  4012d7:	bf 10 00 00 00       	mov    $0x10,%edi
  4012dc:	e8 5f f9 ff ff       	callq  400c40 <exit@plt>

00000000004012e1 <invalid_phase>:
  4012e1:	48 83 ec 08          	sub    $0x8,%rsp
  4012e5:	48 89 fe             	mov    %rdi,%rsi
  4012e8:	bf db 30 40 00       	mov    $0x4030db,%edi
  4012ed:	b8 00 00 00 00       	mov    $0x0,%eax
  4012f2:	e8 39 f8 ff ff       	callq  400b30 <printf@plt>
  4012f7:	bf 08 00 00 00       	mov    $0x8,%edi
  4012fc:	e8 3f f9 ff ff       	callq  400c40 <exit@plt>

0000000000401301 <string_length>:
  401301:	b8 00 00 00 00       	mov    $0x0,%eax
  401306:	eb 0e                	jmp    401316 <string_length+0x15>
  401308:	48 83 c7 01          	add    $0x1,%rdi
  40130c:	83 c0 01             	add    $0x1,%eax
  40130f:	3d 10 27 00 00       	cmp    $0x2710,%eax
  401314:	74 05                	je     40131b <string_length+0x1a>
  401316:	80 3f 00             	cmpb   $0x0,(%rdi)
  401319:	75 ed                	jne    401308 <string_length+0x7>
  40131b:	f3 c3                	repz retq 

000000000040131d <strings_not_equal>:
  40131d:	41 54                	push   %r12
  40131f:	55                   	push   %rbp
  401320:	53                   	push   %rbx
  401321:	48 89 fb             	mov    %rdi,%rbx
  401324:	48 89 f5             	mov    %rsi,%rbp
  401327:	e8 d5 ff ff ff       	callq  401301 <string_length>
  40132c:	41 89 c4             	mov    %eax,%r12d
  40132f:	48 89 ef             	mov    %rbp,%rdi
  401332:	e8 ca ff ff ff       	callq  401301 <string_length>
  401337:	ba 01 00 00 00       	mov    $0x1,%edx
  40133c:	41 39 c4             	cmp    %eax,%r12d
  40133f:	75 3f                	jne    401380 <strings_not_equal+0x63>
  401341:	0f b6 03             	movzbl (%rbx),%eax
  401344:	84 c0                	test   %al,%al
  401346:	74 25                	je     40136d <strings_not_equal+0x50>
  401348:	3a 45 00             	cmp    0x0(%rbp),%al
  40134b:	74 0a                	je     401357 <strings_not_equal+0x3a>
  40134d:	0f 1f 00             	nopl   (%rax)
  401350:	eb 22                	jmp    401374 <strings_not_equal+0x57>
  401352:	3a 45 00             	cmp    0x0(%rbp),%al
  401355:	75 24                	jne    40137b <strings_not_equal+0x5e>
  401357:	48 83 c3 01          	add    $0x1,%rbx
  40135b:	48 83 c5 01          	add    $0x1,%rbp
  40135f:	0f b6 03             	movzbl (%rbx),%eax
  401362:	84 c0                	test   %al,%al
  401364:	75 ec                	jne    401352 <strings_not_equal+0x35>
  401366:	ba 00 00 00 00       	mov    $0x0,%edx
  40136b:	eb 13                	jmp    401380 <strings_not_equal+0x63>
  40136d:	ba 00 00 00 00       	mov    $0x0,%edx
  401372:	eb 0c                	jmp    401380 <strings_not_equal+0x63>
  401374:	ba 01 00 00 00       	mov    $0x1,%edx
  401379:	eb 05                	jmp    401380 <strings_not_equal+0x63>
  40137b:	ba 01 00 00 00       	mov    $0x1,%edx
  401380:	89 d0                	mov    %edx,%eax
  401382:	5b                   	pop    %rbx
  401383:	5d                   	pop    %rbp
  401384:	41 5c                	pop    %r12
  401386:	c3                   	retq   

0000000000401387 <initialize_bomb>:
  401387:	53                   	push   %rbx
  401388:	48 81 ec 40 20 00 00 	sub    $0x2040,%rsp
  40138f:	be 90 12 40 00       	mov    $0x401290,%esi
  401394:	bf 02 00 00 00       	mov    $0x2,%edi
  401399:	e8 f2 f7 ff ff       	callq  400b90 <signal@plt>
  40139e:	be 40 00 00 00       	mov    $0x40,%esi
  4013a3:	48 8d bc 24 00 20 00 	lea    0x2000(%rsp),%rdi
  4013aa:	00 
  4013ab:	e8 70 f8 ff ff       	callq  400c20 <gethostname@plt>
  4013b0:	85 c0                	test   %eax,%eax
  4013b2:	75 13                	jne    4013c7 <initialize_bomb+0x40>
  4013b4:	48 8b 3d 45 2e 20 00 	mov    0x202e45(%rip),%rdi        # 604200 <host_table>
  4013bb:	bb 08 42 60 00       	mov    $0x604208,%ebx
  4013c0:	48 85 ff             	test   %rdi,%rdi
  4013c3:	75 16                	jne    4013db <initialize_bomb+0x54>
  4013c5:	eb 50                	jmp    401417 <initialize_bomb+0x90>
  4013c7:	bf 80 2b 40 00       	mov    $0x402b80,%edi
  4013cc:	e8 3f f7 ff ff       	callq  400b10 <puts@plt>
  4013d1:	bf 08 00 00 00       	mov    $0x8,%edi
  4013d6:	e8 65 f8 ff ff       	callq  400c40 <exit@plt>
  4013db:	48 8d b4 24 00 20 00 	lea    0x2000(%rsp),%rsi
  4013e2:	00 
  4013e3:	e8 f8 f6 ff ff       	callq  400ae0 <strcasecmp@plt>
  4013e8:	85 c0                	test   %eax,%eax
  4013ea:	74 3f                	je     40142b <initialize_bomb+0xa4>
  4013ec:	48 83 c3 08          	add    $0x8,%rbx
  4013f0:	48 8b 7b f8          	mov    -0x8(%rbx),%rdi
  4013f4:	48 85 ff             	test   %rdi,%rdi
  4013f7:	75 e2                	jne    4013db <initialize_bomb+0x54>
  4013f9:	eb 1c                	jmp    401417 <initialize_bomb+0x90>
  4013fb:	48 89 e6             	mov    %rsp,%rsi
  4013fe:	bf ec 30 40 00       	mov    $0x4030ec,%edi
  401403:	b8 00 00 00 00       	mov    $0x0,%eax
  401408:	e8 23 f7 ff ff       	callq  400b30 <printf@plt>
  40140d:	bf 08 00 00 00       	mov    $0x8,%edi
  401412:	e8 29 f8 ff ff       	callq  400c40 <exit@plt>
  401417:	bf b8 2b 40 00       	mov    $0x402bb8,%edi
  40141c:	e8 ef f6 ff ff       	callq  400b10 <puts@plt>
  401421:	bf 08 00 00 00       	mov    $0x8,%edi
  401426:	e8 15 f8 ff ff       	callq  400c40 <exit@plt>
  40142b:	48 89 e7             	mov    %rsp,%rdi
  40142e:	e8 5e 12 00 00       	callq  402691 <init_driver>
  401433:	85 c0                	test   %eax,%eax
  401435:	78 c4                	js     4013fb <initialize_bomb+0x74>
  401437:	48 81 c4 40 20 00 00 	add    $0x2040,%rsp
  40143e:	5b                   	pop    %rbx
  40143f:	c3                   	retq   

0000000000401440 <welcome_message>:
  401440:	83 ff 01             	cmp    $0x1,%edi
  401443:	0f 85 a8 00 00 00    	jne    4014f1 <welcome_message+0xb1>
  401449:	48 83 ec 08          	sub    $0x8,%rsp
  40144d:	bf f0 2b 40 00       	mov    $0x402bf0,%edi
  401452:	e8 b9 f6 ff ff       	callq  400b10 <puts@plt>
  401457:	bf 30 2c 40 00       	mov    $0x402c30,%edi
  40145c:	e8 af f6 ff ff       	callq  400b10 <puts@plt>
  401461:	bf 70 2c 40 00       	mov    $0x402c70,%edi
  401466:	e8 a5 f6 ff ff       	callq  400b10 <puts@plt>
  40146b:	bf b0 2c 40 00       	mov    $0x402cb0,%edi
  401470:	e8 9b f6 ff ff       	callq  400b10 <puts@plt>
  401475:	bf f0 2c 40 00       	mov    $0x402cf0,%edi
  40147a:	e8 91 f6 ff ff       	callq  400b10 <puts@plt>
  40147f:	bf 30 2d 40 00       	mov    $0x402d30,%edi
  401484:	e8 87 f6 ff ff       	callq  400b10 <puts@plt>
  401489:	bf 70 2d 40 00       	mov    $0x402d70,%edi
  40148e:	e8 7d f6 ff ff       	callq  400b10 <puts@plt>
  401493:	bf a8 2d 40 00       	mov    $0x402da8,%edi
  401498:	e8 73 f6 ff ff       	callq  400b10 <puts@plt>
  40149d:	bf e0 2d 40 00       	mov    $0x402de0,%edi
  4014a2:	e8 69 f6 ff ff       	callq  400b10 <puts@plt>
  4014a7:	bf 20 2e 40 00       	mov    $0x402e20,%edi
  4014ac:	e8 5f f6 ff ff       	callq  400b10 <puts@plt>
  4014b1:	bf 60 2e 40 00       	mov    $0x402e60,%edi
  4014b6:	e8 55 f6 ff ff       	callq  400b10 <puts@plt>
  4014bb:	bf a0 2e 40 00       	mov    $0x402ea0,%edi
  4014c0:	e8 4b f6 ff ff       	callq  400b10 <puts@plt>
  4014c5:	bf e0 2e 40 00       	mov    $0x402ee0,%edi
  4014ca:	e8 41 f6 ff ff       	callq  400b10 <puts@plt>
  4014cf:	bf 20 2f 40 00       	mov    $0x402f20,%edi
  4014d4:	e8 37 f6 ff ff       	callq  400b10 <puts@plt>
  4014d9:	bf 60 2f 40 00       	mov    $0x402f60,%edi
  4014de:	e8 2d f6 ff ff       	callq  400b10 <puts@plt>
  4014e3:	bf a0 2f 40 00       	mov    $0x402fa0,%edi
  4014e8:	e8 23 f6 ff ff       	callq  400b10 <puts@plt>
  4014ed:	48 83 c4 08          	add    $0x8,%rsp
  4014f1:	f3 c3                	repz retq 

00000000004014f3 <initialize_bomb_solve>:
  4014f3:	f3 c3                	repz retq 

00000000004014f5 <blank_line>:
  4014f5:	55                   	push   %rbp
  4014f6:	53                   	push   %rbx
  4014f7:	48 83 ec 08          	sub    $0x8,%rsp
  4014fb:	48 89 fb             	mov    %rdi,%rbx
  4014fe:	eb 17                	jmp    401517 <blank_line+0x22>
  401500:	e8 6b f7 ff ff       	callq  400c70 <__ctype_b_loc@plt>
  401505:	48 83 c3 01          	add    $0x1,%rbx
  401509:	48 0f be ed          	movsbq %bpl,%rbp
  40150d:	48 8b 00             	mov    (%rax),%rax
  401510:	f6 44 68 01 20       	testb  $0x20,0x1(%rax,%rbp,2)
  401515:	74 0f                	je     401526 <blank_line+0x31>
  401517:	0f b6 2b             	movzbl (%rbx),%ebp
  40151a:	40 84 ed             	test   %bpl,%bpl
  40151d:	75 e1                	jne    401500 <blank_line+0xb>
  40151f:	b8 01 00 00 00       	mov    $0x1,%eax
  401524:	eb 05                	jmp    40152b <blank_line+0x36>
  401526:	b8 00 00 00 00       	mov    $0x0,%eax
  40152b:	48 83 c4 08          	add    $0x8,%rsp
  40152f:	5b                   	pop    %rbx
  401530:	5d                   	pop    %rbp
  401531:	c3                   	retq   

0000000000401532 <skip>:
  401532:	53                   	push   %rbx
  401533:	48 63 05 e6 30 20 00 	movslq 0x2030e6(%rip),%rax        # 604620 <num_input_strings>
  40153a:	48 8d 3c 80          	lea    (%rax,%rax,4),%rdi
  40153e:	48 c1 e7 04          	shl    $0x4,%rdi
  401542:	48 81 c7 40 46 60 00 	add    $0x604640,%rdi
  401549:	48 8b 15 d8 30 20 00 	mov    0x2030d8(%rip),%rdx        # 604628 <infile>
  401550:	be 50 00 00 00       	mov    $0x50,%esi
  401555:	e8 26 f6 ff ff       	callq  400b80 <fgets@plt>
  40155a:	48 89 c3             	mov    %rax,%rbx
  40155d:	48 85 c0             	test   %rax,%rax
  401560:	74 0c                	je     40156e <skip+0x3c>
  401562:	48 89 c7             	mov    %rax,%rdi
  401565:	e8 8b ff ff ff       	callq  4014f5 <blank_line>
  40156a:	85 c0                	test   %eax,%eax
  40156c:	75 c5                	jne    401533 <skip+0x1>
  40156e:	48 89 d8             	mov    %rbx,%rax
  401571:	5b                   	pop    %rbx
  401572:	c3                   	retq   

0000000000401573 <send_msg>:
  401573:	48 81 ec 08 40 00 00 	sub    $0x4008,%rsp
  40157a:	89 fe                	mov    %edi,%esi
  40157c:	44 8b 05 9d 30 20 00 	mov    0x20309d(%rip),%r8d        # 604620 <num_input_strings>
  401583:	41 8d 40 ff          	lea    -0x1(%r8),%eax
  401587:	48 98                	cltq   
  401589:	4c 8d 0c 80          	lea    (%rax,%rax,4),%r9
  40158d:	49 c1 e1 04          	shl    $0x4,%r9
  401591:	49 81 c1 40 46 60 00 	add    $0x604640,%r9
  401598:	4c 89 cf             	mov    %r9,%rdi
  40159b:	b8 00 00 00 00       	mov    $0x0,%eax
  4015a0:	48 c7 c1 ff ff ff ff 	mov    $0xffffffffffffffff,%rcx
  4015a7:	f2 ae                	repnz scas %es:(%rdi),%al
  4015a9:	48 f7 d1             	not    %rcx
  4015ac:	48 83 c1 63          	add    $0x63,%rcx
  4015b0:	48 81 f9 00 20 00 00 	cmp    $0x2000,%rcx
  4015b7:	76 14                	jbe    4015cd <send_msg+0x5a>
  4015b9:	bf e0 2f 40 00       	mov    $0x402fe0,%edi
  4015be:	e8 6d f5 ff ff       	callq  400b30 <printf@plt>
  4015c3:	bf 08 00 00 00       	mov    $0x8,%edi
  4015c8:	e8 73 f6 ff ff       	callq  400c40 <exit@plt>
  4015cd:	85 f6                	test   %esi,%esi
  4015cf:	b8 06 31 40 00       	mov    $0x403106,%eax
  4015d4:	b9 0e 31 40 00       	mov    $0x40310e,%ecx
  4015d9:	48 0f 45 c8          	cmovne %rax,%rcx
  4015dd:	8b 15 fd 2b 20 00    	mov    0x202bfd(%rip),%edx        # 6041e0 <bomb_id>
  4015e3:	be 17 31 40 00       	mov    $0x403117,%esi
  4015e8:	48 8d bc 24 00 20 00 	lea    0x2000(%rsp),%rdi
  4015ef:	00 
  4015f0:	b8 00 00 00 00       	mov    $0x0,%eax
  4015f5:	e8 36 f6 ff ff       	callq  400c30 <sprintf@plt>
  4015fa:	49 89 e0             	mov    %rsp,%r8
  4015fd:	b9 00 00 00 00       	mov    $0x0,%ecx
  401602:	48 8d 94 24 00 20 00 	lea    0x2000(%rsp),%rdx
  401609:	00 
  40160a:	be c0 41 60 00       	mov    $0x6041c0,%esi
  40160f:	bf d5 41 60 00       	mov    $0x6041d5,%edi
  401614:	e8 16 12 00 00       	callq  40282f <driver_post>
  401619:	85 c0                	test   %eax,%eax
  40161b:	79 12                	jns    40162f <send_msg+0xbc>
  40161d:	48 89 e7             	mov    %rsp,%rdi
  401620:	e8 eb f4 ff ff       	callq  400b10 <puts@plt>
  401625:	bf 00 00 00 00       	mov    $0x0,%edi
  40162a:	e8 11 f6 ff ff       	callq  400c40 <exit@plt>
  40162f:	48 81 c4 08 40 00 00 	add    $0x4008,%rsp
  401636:	c3                   	retq   

0000000000401637 <phase_defused>:
  401637:	48 83 ec 08          	sub    $0x8,%rsp
  40163b:	bf 01 00 00 00       	mov    $0x1,%edi
  401640:	e8 2e ff ff ff       	callq  401573 <send_msg>
  401645:	83 3d d4 2f 20 00 05 	cmpl   $0x5,0x202fd4(%rip)        # 604620 <num_input_strings>
  40164c:	7e 1d                	jle    40166b <phase_defused+0x34>
  40164e:	83 3d c7 2f 20 00 21 	cmpl   $0x21,0x202fc7(%rip)        # 60461c <last>
  401655:	74 14                	je     40166b <phase_defused+0x34>
  401657:	bf 08 30 40 00       	mov    $0x403008,%edi
  40165c:	e8 af f4 ff ff       	callq  400b10 <puts@plt>
  401661:	bf 38 30 40 00       	mov    $0x403038,%edi
  401666:	e8 a5 f4 ff ff       	callq  400b10 <puts@plt>
  40166b:	48 83 c4 08          	add    $0x8,%rsp
  40166f:	c3                   	retq   

0000000000401670 <explode_bomb>:
  401670:	48 81 ec d8 00 00 00 	sub    $0xd8,%rsp
  401677:	83 3d a2 2f 20 00 06 	cmpl   $0x6,0x202fa2(%rip)        # 604620 <num_input_strings>
  40167e:	77 60                	ja     4016e0 <explode_bomb+0x70>
  401680:	8b 05 9a 2f 20 00    	mov    0x202f9a(%rip),%eax        # 604620 <num_input_strings>
  401686:	ff 24 c5 00 33 40 00 	jmpq   *0x403300(,%rax,8)
  40168d:	bf 23 31 40 00       	mov    $0x403123,%edi
  401692:	e8 79 f4 ff ff       	callq  400b10 <puts@plt>
  401697:	eb 47                	jmp    4016e0 <explode_bomb+0x70>
  401699:	bf 80 30 40 00       	mov    $0x403080,%edi
  40169e:	e8 6d f4 ff ff       	callq  400b10 <puts@plt>
  4016a3:	eb 3b                	jmp    4016e0 <explode_bomb+0x70>
  4016a5:	bf 28 31 40 00       	mov    $0x403128,%edi
  4016aa:	e8 61 f4 ff ff       	callq  400b10 <puts@plt>
  4016af:	90                   	nop
  4016b0:	eb 2e                	jmp    4016e0 <explode_bomb+0x70>
  4016b2:	bf 3d 31 40 00       	mov    $0x40313d,%edi
  4016b7:	e8 54 f4 ff ff       	callq  400b10 <puts@plt>
  4016bc:	eb 22                	jmp    4016e0 <explode_bomb+0x70>
  4016be:	bf 53 31 40 00       	mov    $0x403153,%edi
  4016c3:	e8 48 f4 ff ff       	callq  400b10 <puts@plt>
  4016c8:	eb 16                	jmp    4016e0 <explode_bomb+0x70>
  4016ca:	bf 6a 31 40 00       	mov    $0x40316a,%edi
  4016cf:	e8 3c f4 ff ff       	callq  400b10 <puts@plt>
  4016d4:	eb 0a                	jmp    4016e0 <explode_bomb+0x70>
  4016d6:	bf 73 31 40 00       	mov    $0x403173,%edi
  4016db:	e8 30 f4 ff ff       	callq  400b10 <puts@plt>
  4016e0:	48 89 e7             	mov    %rsp,%rdi
  4016e3:	b9 19 00 00 00       	mov    $0x19,%ecx
  4016e8:	b8 00 00 00 00       	mov    $0x0,%eax
  4016ed:	f3 48 ab             	rep stos %rax,%es:(%rdi)
  4016f0:	c6 04 24 53          	movb   $0x53,(%rsp)
  4016f4:	c6 44 24 01 6f       	movb   $0x6f,0x1(%rsp)
  4016f9:	c6 44 24 02 20       	movb   $0x20,0x2(%rsp)
  4016fe:	c6 44 24 03 79       	movb   $0x79,0x3(%rsp)
  401703:	c6 44 24 04 6f       	movb   $0x6f,0x4(%rsp)
  401708:	c6 44 24 05 75       	movb   $0x75,0x5(%rsp)
  40170d:	c6 44 24 06 20       	movb   $0x20,0x6(%rsp)
  401712:	c6 44 24 07 6d       	movb   $0x6d,0x7(%rsp)
  401717:	c6 44 24 08 61       	movb   $0x61,0x8(%rsp)
  40171c:	c6 44 24 09 64       	movb   $0x64,0x9(%rsp)
  401721:	c6 44 24 0a 65       	movb   $0x65,0xa(%rsp)
  401726:	c6 44 24 0b 20       	movb   $0x20,0xb(%rsp)
  40172b:	c6 44 24 0c 69       	movb   $0x69,0xc(%rsp)
  401730:	c6 44 24 0d 74       	movb   $0x74,0xd(%rsp)
  401735:	c6 44 24 0e 20       	movb   $0x20,0xe(%rsp)
  40173a:	c6 44 24 0f 74       	movb   $0x74,0xf(%rsp)
  40173f:	c6 44 24 10 6f       	movb   $0x6f,0x10(%rsp)
  401744:	c6 44 24 11 20       	movb   $0x20,0x11(%rsp)
  401749:	c6 44 24 12 74       	movb   $0x74,0x12(%rsp)
  40174e:	c6 44 24 13 68       	movb   $0x68,0x13(%rsp)
  401753:	c6 44 24 14 65       	movb   $0x65,0x14(%rsp)
  401758:	c6 44 24 15 20       	movb   $0x20,0x15(%rsp)
  40175d:	c6 44 24 16 73       	movb   $0x73,0x16(%rsp)
  401762:	c6 44 24 17 33       	movb   $0x33,0x17(%rsp)
  401767:	c6 44 24 18 63       	movb   $0x63,0x18(%rsp)
  40176c:	c6 44 24 19 72       	movb   $0x72,0x19(%rsp)
  401771:	c6 44 24 1a 65       	movb   $0x65,0x1a(%rsp)
  401776:	c6 44 24 1b 74       	movb   $0x74,0x1b(%rsp)
  40177b:	c6 44 24 1c 20       	movb   $0x20,0x1c(%rsp)
  401780:	c6 44 24 1d 70       	movb   $0x70,0x1d(%rsp)
  401785:	c6 44 24 1e 68       	movb   $0x68,0x1e(%rsp)
  40178a:	c6 44 24 1f 61       	movb   $0x61,0x1f(%rsp)
  40178f:	c6 44 24 20 73       	movb   $0x73,0x20(%rsp)
  401794:	c6 44 24 21 65       	movb   $0x65,0x21(%rsp)
  401799:	c6 44 24 22 2e       	movb   $0x2e,0x22(%rsp)
  40179e:	c6 44 24 23 20       	movb   $0x20,0x23(%rsp)
  4017a3:	c6 44 24 24 20       	movb   $0x20,0x24(%rsp)
  4017a8:	c6 44 24 25 4e       	movb   $0x4e,0x25(%rsp)
  4017ad:	c6 44 24 26 69       	movb   $0x69,0x26(%rsp)
  4017b2:	c6 44 24 27 63       	movb   $0x63,0x27(%rsp)
  4017b7:	c6 44 24 28 65       	movb   $0x65,0x28(%rsp)
  4017bc:	c6 44 24 29 2c       	movb   $0x2c,0x29(%rsp)
  4017c1:	c6 44 24 2a 20       	movb   $0x20,0x2a(%rsp)
  4017c6:	c6 44 24 2b 62       	movb   $0x62,0x2b(%rsp)
  4017cb:	c6 44 24 2c 75       	movb   $0x75,0x2c(%rsp)
  4017d0:	c6 44 24 2d 74       	movb   $0x74,0x2d(%rsp)
  4017d5:	c6 44 24 2e 0a       	movb   $0xa,0x2e(%rsp)
  4017da:	c6 44 24 2f 64       	movb   $0x64,0x2f(%rsp)
  4017df:	c6 44 24 30 6f       	movb   $0x6f,0x30(%rsp)
  4017e4:	c6 44 24 31 6e       	movb   $0x6e,0x31(%rsp)
  4017e9:	c6 44 24 32 27       	movb   $0x27,0x32(%rsp)
  4017ee:	c6 44 24 33 74       	movb   $0x74,0x33(%rsp)
  4017f3:	c6 44 24 34 20       	movb   $0x20,0x34(%rsp)
  4017f8:	c6 44 24 35 74       	movb   $0x74,0x35(%rsp)
  4017fd:	c6 44 24 36 65       	movb   $0x65,0x36(%rsp)
  401802:	c6 44 24 37 6c       	movb   $0x6c,0x37(%rsp)
  401807:	c6 44 24 38 6c       	movb   $0x6c,0x38(%rsp)
  40180c:	c6 44 24 39 20       	movb   $0x20,0x39(%rsp)
  401811:	c6 44 24 3a 61       	movb   $0x61,0x3a(%rsp)
  401816:	c6 44 24 3b 6e       	movb   $0x6e,0x3b(%rsp)
  40181b:	c6 44 24 3c 79       	movb   $0x79,0x3c(%rsp)
  401820:	c6 44 24 3d 6f       	movb   $0x6f,0x3d(%rsp)
  401825:	c6 44 24 3e 6e       	movb   $0x6e,0x3e(%rsp)
  40182a:	c6 44 24 3f 65       	movb   $0x65,0x3f(%rsp)
  40182f:	c6 44 24 40 20       	movb   $0x20,0x40(%rsp)
  401834:	c6 44 24 41 61       	movb   $0x61,0x41(%rsp)
  401839:	c6 44 24 42 62       	movb   $0x62,0x42(%rsp)
  40183e:	c6 44 24 43 6f       	movb   $0x6f,0x43(%rsp)
  401843:	c6 44 24 44 75       	movb   $0x75,0x44(%rsp)
  401848:	c6 44 24 45 74       	movb   $0x74,0x45(%rsp)
  40184d:	c6 44 24 46 20       	movb   $0x20,0x46(%rsp)
  401852:	c6 44 24 47 69       	movb   $0x69,0x47(%rsp)
  401857:	c6 44 24 48 74       	movb   $0x74,0x48(%rsp)
  40185c:	c6 44 24 49 20       	movb   $0x20,0x49(%rsp)
  401861:	c6 44 24 4a 28       	movb   $0x28,0x4a(%rsp)
  401866:	c6 44 24 4b 65       	movb   $0x65,0x4b(%rsp)
  40186b:	c6 44 24 4c 73       	movb   $0x73,0x4c(%rsp)
  401870:	c6 44 24 4d 70       	movb   $0x70,0x4d(%rsp)
  401875:	c6 44 24 4e 65       	movb   $0x65,0x4e(%rsp)
  40187a:	c6 44 24 4f 63       	movb   $0x63,0x4f(%rsp)
  40187f:	c6 44 24 50 69       	movb   $0x69,0x50(%rsp)
  401884:	c6 44 24 51 61       	movb   $0x61,0x51(%rsp)
  401889:	c6 44 24 52 6c       	movb   $0x6c,0x52(%rsp)
  40188e:	c6 44 24 53 6c       	movb   $0x6c,0x53(%rsp)
  401893:	c6 44 24 54 79       	movb   $0x79,0x54(%rsp)
  401898:	c6 44 24 55 20       	movb   $0x20,0x55(%rsp)
  40189d:	c6 44 24 56 6f       	movb   $0x6f,0x56(%rsp)
  4018a2:	c6 44 24 57 6e       	movb   $0x6e,0x57(%rsp)
  4018a7:	c6 44 24 58 20       	movb   $0x20,0x58(%rsp)
  4018ac:	c6 44 24 59 50       	movb   $0x50,0x59(%rsp)
  4018b1:	c6 44 24 5a 69       	movb   $0x69,0x5a(%rsp)
  4018b6:	c6 44 24 5b 61       	movb   $0x61,0x5b(%rsp)
  4018bb:	c6 44 24 5c 7a       	movb   $0x7a,0x5c(%rsp)
  4018c0:	c6 44 24 5d 7a       	movb   $0x7a,0x5d(%rsp)
  4018c5:	c6 44 24 5e 61       	movb   $0x61,0x5e(%rsp)
  4018ca:	c6 44 24 5f 29       	movb   $0x29,0x5f(%rsp)
  4018cf:	c6 44 24 60 2e       	movb   $0x2e,0x60(%rsp)
  4018d4:	c6 44 24 61 0a       	movb   $0xa,0x61(%rsp)
  4018d9:	c6 44 24 62 49       	movb   $0x49,0x62(%rsp)
  4018de:	c6 44 24 63 66       	movb   $0x66,0x63(%rsp)
  4018e3:	c6 44 24 64 20       	movb   $0x20,0x64(%rsp)
  4018e8:	c6 44 24 65 79       	movb   $0x79,0x65(%rsp)
  4018ed:	c6 44 24 66 6f       	movb   $0x6f,0x66(%rsp)
  4018f2:	c6 44 24 67 75       	movb   $0x75,0x67(%rsp)
  4018f7:	c6 44 24 68 20       	movb   $0x20,0x68(%rsp)
  4018fc:	c6 44 24 69 64       	movb   $0x64,0x69(%rsp)
  401901:	c6 44 24 6a 6f       	movb   $0x6f,0x6a(%rsp)
  401906:	c6 44 24 6b 20       	movb   $0x20,0x6b(%rsp)
  40190b:	c6 44 24 6c 79       	movb   $0x79,0x6c(%rsp)
  401910:	c6 44 24 6d 6f       	movb   $0x6f,0x6d(%rsp)
  401915:	c6 44 24 6e 75       	movb   $0x75,0x6e(%rsp)
  40191a:	c6 44 24 6f 20       	movb   $0x20,0x6f(%rsp)
  40191f:	c6 44 24 70 77       	movb   $0x77,0x70(%rsp)
  401924:	c6 44 24 71 6f       	movb   $0x6f,0x71(%rsp)
  401929:	c6 44 24 72 6e       	movb   $0x6e,0x72(%rsp)
  40192e:	c6 44 24 73 27       	movb   $0x27,0x73(%rsp)
  401933:	c6 44 24 74 74       	movb   $0x74,0x74(%rsp)
  401938:	c6 44 24 75 20       	movb   $0x20,0x75(%rsp)
  40193d:	c6 44 24 76 67       	movb   $0x67,0x76(%rsp)
  401942:	c6 44 24 77 65       	movb   $0x65,0x77(%rsp)
  401947:	c6 44 24 78 74       	movb   $0x74,0x78(%rsp)
  40194c:	c6 44 24 79 20       	movb   $0x20,0x79(%rsp)
  401951:	c6 44 24 7a 61       	movb   $0x61,0x7a(%rsp)
  401956:	c6 44 24 7b 6e       	movb   $0x6e,0x7b(%rsp)
  40195b:	c6 44 24 7c 79       	movb   $0x79,0x7c(%rsp)
  401960:	c6 44 24 7d 20       	movb   $0x20,0x7d(%rsp)
  401965:	c6 44 24 7e 65       	movb   $0x65,0x7e(%rsp)
  40196a:	c6 44 24 7f 78       	movb   $0x78,0x7f(%rsp)
  40196f:	c6 84 24 80 00 00 00 	movb   $0x74,0x80(%rsp)
  401976:	74 
  401977:	c6 84 24 81 00 00 00 	movb   $0x72,0x81(%rsp)
  40197e:	72 
  40197f:	c6 84 24 82 00 00 00 	movb   $0x61,0x82(%rsp)
  401986:	61 
  401987:	c6 84 24 83 00 00 00 	movb   $0x20,0x83(%rsp)
  40198e:	20 
  40198f:	c6 84 24 84 00 00 00 	movb   $0x63,0x84(%rsp)
  401996:	63 
  401997:	c6 84 24 85 00 00 00 	movb   $0x72,0x85(%rsp)
  40199e:	72 
  40199f:	c6 84 24 86 00 00 00 	movb   $0x65,0x86(%rsp)
  4019a6:	65 
  4019a7:	c6 84 24 87 00 00 00 	movb   $0x64,0x87(%rsp)
  4019ae:	64 
  4019af:	c6 84 24 88 00 00 00 	movb   $0x69,0x88(%rsp)
  4019b6:	69 
  4019b7:	c6 84 24 89 00 00 00 	movb   $0x74,0x89(%rsp)
  4019be:	74 
  4019bf:	c6 84 24 8a 00 00 00 	movb   $0x21,0x8a(%rsp)
  4019c6:	21 
  4019c7:	c6 84 24 8b 00 00 00 	movb   $0x20,0x8b(%rsp)
  4019ce:	20 
  4019cf:	c6 84 24 8c 00 00 00 	movb   $0x61,0x8c(%rsp)
  4019d6:	61 
  4019d7:	c6 84 24 8d 00 00 00 	movb   $0x6e,0x8d(%rsp)
  4019de:	6e 
  4019df:	c6 84 24 8e 00 00 00 	movb   $0x79,0x8e(%rsp)
  4019e6:	79 
  4019e7:	c6 84 24 8f 00 00 00 	movb   $0x77,0x8f(%rsp)
  4019ee:	77 
  4019ef:	c6 84 24 90 00 00 00 	movb   $0x61,0x90(%rsp)
  4019f6:	61 
  4019f7:	c6 84 24 91 00 00 00 	movb   $0x79,0x91(%rsp)
  4019fe:	79 
  4019ff:	c6 84 24 92 00 00 00 	movb   $0x73,0x92(%rsp)
  401a06:	73 
  401a07:	c6 84 24 93 00 00 00 	movb   $0x2c,0x93(%rsp)
  401a0e:	2c 
  401a0f:	c6 84 24 94 00 00 00 	movb   $0xa,0x94(%rsp)
  401a16:	0a 
  401a17:	c6 84 24 95 00 00 00 	movb   $0x66,0x95(%rsp)
  401a1e:	66 
  401a1f:	c6 84 24 96 00 00 00 	movb   $0x69,0x96(%rsp)
  401a26:	69 
  401a27:	c6 84 24 97 00 00 00 	movb   $0x6e,0x97(%rsp)
  401a2e:	6e 
  401a2f:	c6 84 24 98 00 00 00 	movb   $0x64,0x98(%rsp)
  401a36:	64 
  401a37:	c6 84 24 99 00 00 00 	movb   $0x69,0x99(%rsp)
  401a3e:	69 
  401a3f:	c6 84 24 9a 00 00 00 	movb   $0x6e,0x9a(%rsp)
  401a46:	6e 
  401a47:	c6 84 24 9b 00 00 00 	movb   $0x67,0x9b(%rsp)
  401a4e:	67 
  401a4f:	c6 84 24 9c 00 00 00 	movb   $0x20,0x9c(%rsp)
  401a56:	20 
  401a57:	c6 84 24 9d 00 00 00 	movb   $0x69,0x9d(%rsp)
  401a5e:	69 
  401a5f:	c6 84 24 9e 00 00 00 	movb   $0x74,0x9e(%rsp)
  401a66:	74 
  401a67:	c6 84 24 9f 00 00 00 	movb   $0x20,0x9f(%rsp)
  401a6e:	20 
  401a6f:	c6 84 24 a0 00 00 00 	movb   $0x61,0xa0(%rsp)
  401a76:	61 
  401a77:	c6 84 24 a1 00 00 00 	movb   $0x6e,0xa1(%rsp)
  401a7e:	6e 
  401a7f:	c6 84 24 a2 00 00 00 	movb   $0x64,0xa2(%rsp)
  401a86:	64 
  401a87:	c6 84 24 a3 00 00 00 	movb   $0x20,0xa3(%rsp)
  401a8e:	20 
  401a8f:	c6 84 24 a4 00 00 00 	movb   $0x73,0xa4(%rsp)
  401a96:	73 
  401a97:	c6 84 24 a5 00 00 00 	movb   $0x6f,0xa5(%rsp)
  401a9e:	6f 
  401a9f:	c6 84 24 a6 00 00 00 	movb   $0x6c,0xa6(%rsp)
  401aa6:	6c 
  401aa7:	c6 84 24 a7 00 00 00 	movb   $0x76,0xa7(%rsp)
  401aae:	76 
  401aaf:	c6 84 24 a8 00 00 00 	movb   $0x69,0xa8(%rsp)
  401ab6:	69 
  401ab7:	c6 84 24 a9 00 00 00 	movb   $0x6e,0xa9(%rsp)
  401abe:	6e 
  401abf:	c6 84 24 aa 00 00 00 	movb   $0x67,0xaa(%rsp)
  401ac6:	67 
  401ac7:	c6 84 24 ab 00 00 00 	movb   $0x20,0xab(%rsp)
  401ace:	20 
  401acf:	c6 84 24 ac 00 00 00 	movb   $0x69,0xac(%rsp)
  401ad6:	69 
  401ad7:	c6 84 24 ad 00 00 00 	movb   $0x74,0xad(%rsp)
  401ade:	74 
  401adf:	c6 84 24 ae 00 00 00 	movb   $0x20,0xae(%rsp)
  401ae6:	20 
  401ae7:	c6 84 24 af 00 00 00 	movb   $0x61,0xaf(%rsp)
  401aee:	61 
  401aef:	c6 84 24 b0 00 00 00 	movb   $0x72,0xb0(%rsp)
  401af6:	72 
  401af7:	c6 84 24 b1 00 00 00 	movb   $0x65,0xb1(%rsp)
  401afe:	65 
  401aff:	c6 84 24 b2 00 00 00 	movb   $0x20,0xb2(%rsp)
  401b06:	20 
  401b07:	c6 84 24 b3 00 00 00 	movb   $0x71,0xb3(%rsp)
  401b0e:	71 
  401b0f:	c6 84 24 b4 00 00 00 	movb   $0x75,0xb4(%rsp)
  401b16:	75 
  401b17:	c6 84 24 b5 00 00 00 	movb   $0x69,0xb5(%rsp)
  401b1e:	69 
  401b1f:	c6 84 24 b6 00 00 00 	movb   $0x74,0xb6(%rsp)
  401b26:	74 
  401b27:	c6 84 24 b7 00 00 00 	movb   $0x65,0xb7(%rsp)
  401b2e:	65 
  401b2f:	c6 84 24 b8 00 00 00 	movb   $0x20,0xb8(%rsp)
  401b36:	20 
  401b37:	c6 84 24 b9 00 00 00 	movb   $0x64,0xb9(%rsp)
  401b3e:	64 
  401b3f:	c6 84 24 ba 00 00 00 	movb   $0x69,0xba(%rsp)
  401b46:	69 
  401b47:	c6 84 24 bb 00 00 00 	movb   $0x66,0xbb(%rsp)
  401b4e:	66 
  401b4f:	c6 84 24 bc 00 00 00 	movb   $0x66,0xbc(%rsp)
  401b56:	66 
  401b57:	c6 84 24 bd 00 00 00 	movb   $0x65,0xbd(%rsp)
  401b5e:	65 
  401b5f:	c6 84 24 be 00 00 00 	movb   $0x72,0xbe(%rsp)
  401b66:	72 
  401b67:	c6 84 24 bf 00 00 00 	movb   $0x65,0xbf(%rsp)
  401b6e:	65 
  401b6f:	c6 84 24 c0 00 00 00 	movb   $0x6e,0xc0(%rsp)
  401b76:	6e 
  401b77:	c6 84 24 c1 00 00 00 	movb   $0x74,0xc1(%rsp)
  401b7e:	74 
  401b7f:	c6 84 24 c2 00 00 00 	movb   $0x2e,0xc2(%rsp)
  401b86:	2e 
  401b87:	c6 84 24 c3 00 00 00 	movb   $0x2e,0xc3(%rsp)
  401b8e:	2e 
  401b8f:	c6 84 24 c4 00 00 00 	movb   $0x2e,0xc4(%rsp)
  401b96:	2e 
  401b97:	83 3d 82 2a 20 00 06 	cmpl   $0x6,0x202a82(%rip)        # 604620 <num_input_strings>
  401b9e:	75 34                	jne    401bd4 <explode_bomb+0x564>
  401ba0:	83 3d 75 2a 20 00 21 	cmpl   $0x21,0x202a75(%rip)        # 60461c <last>
  401ba7:	75 2b                	jne    401bd4 <explode_bomb+0x564>
  401ba9:	48 89 e7             	mov    %rsp,%rdi
  401bac:	e8 5f ef ff ff       	callq  400b10 <puts@plt>
  401bb1:	e8 81 fa ff ff       	callq  401637 <phase_defused>
  401bb6:	c7 05 5c 2a 20 00 00 	movl   $0x0,0x202a5c(%rip)        # 60461c <last>
  401bbd:	00 00 00 
  401bc0:	b8 00 00 00 00       	mov    $0x0,%eax
  401bc5:	e8 25 f6 ff ff       	callq  4011ef <s3cret_ph4se>
  401bca:	bf 00 00 00 00       	mov    $0x0,%edi
  401bcf:	e8 6c f0 ff ff       	callq  400c40 <exit@plt>
  401bd4:	bf 7d 31 40 00       	mov    $0x40317d,%edi
  401bd9:	e8 32 ef ff ff       	callq  400b10 <puts@plt>
  401bde:	bf 86 31 40 00       	mov    $0x403186,%edi
  401be3:	e8 28 ef ff ff       	callq  400b10 <puts@plt>
  401be8:	bf 00 00 00 00       	mov    $0x0,%edi
  401bed:	e8 81 f9 ff ff       	callq  401573 <send_msg>
  401bf2:	bf a8 30 40 00       	mov    $0x4030a8,%edi
  401bf7:	e8 14 ef ff ff       	callq  400b10 <puts@plt>
  401bfc:	bf 08 00 00 00       	mov    $0x8,%edi
  401c01:	e8 3a f0 ff ff       	callq  400c40 <exit@plt>

0000000000401c06 <read_six_numbers>:
  401c06:	48 83 ec 18          	sub    $0x18,%rsp
  401c0a:	48 89 f2             	mov    %rsi,%rdx
  401c0d:	48 8d 4e 04          	lea    0x4(%rsi),%rcx
  401c11:	48 8d 46 14          	lea    0x14(%rsi),%rax
  401c15:	48 89 44 24 08       	mov    %rax,0x8(%rsp)
  401c1a:	48 8d 46 10          	lea    0x10(%rsi),%rax
  401c1e:	48 89 04 24          	mov    %rax,(%rsp)
  401c22:	4c 8d 4e 0c          	lea    0xc(%rsi),%r9
  401c26:	4c 8d 46 08          	lea    0x8(%rsi),%r8
  401c2a:	be 9d 31 40 00       	mov    $0x40319d,%esi
  401c2f:	b8 00 00 00 00       	mov    $0x0,%eax
  401c34:	e8 b7 ef ff ff       	callq  400bf0 <__isoc99_sscanf@plt>
  401c39:	83 f8 05             	cmp    $0x5,%eax
  401c3c:	7f 05                	jg     401c43 <read_six_numbers+0x3d>
  401c3e:	e8 2d fa ff ff       	callq  401670 <explode_bomb>
  401c43:	48 83 c4 18          	add    $0x18,%rsp
  401c47:	c3                   	retq   

0000000000401c48 <read_line>:
  401c48:	48 83 ec 08          	sub    $0x8,%rsp
  401c4c:	b8 00 00 00 00       	mov    $0x0,%eax
  401c51:	e8 dc f8 ff ff       	callq  401532 <skip>
  401c56:	48 85 c0             	test   %rax,%rax
  401c59:	75 6e                	jne    401cc9 <read_line+0x81>
  401c5b:	48 8b 05 a6 29 20 00 	mov    0x2029a6(%rip),%rax        # 604608 <stdin@@GLIBC_2.2.5>
  401c62:	48 39 05 bf 29 20 00 	cmp    %rax,0x2029bf(%rip)        # 604628 <infile>
  401c69:	75 14                	jne    401c7f <read_line+0x37>
  401c6b:	bf af 31 40 00       	mov    $0x4031af,%edi
  401c70:	e8 9b ee ff ff       	callq  400b10 <puts@plt>
  401c75:	bf 08 00 00 00       	mov    $0x8,%edi
  401c7a:	e8 c1 ef ff ff       	callq  400c40 <exit@plt>
  401c7f:	bf cd 31 40 00       	mov    $0x4031cd,%edi
  401c84:	e8 47 ee ff ff       	callq  400ad0 <getenv@plt>
  401c89:	48 85 c0             	test   %rax,%rax
  401c8c:	74 0a                	je     401c98 <read_line+0x50>
  401c8e:	bf 00 00 00 00       	mov    $0x0,%edi
  401c93:	e8 a8 ef ff ff       	callq  400c40 <exit@plt>
  401c98:	48 8b 05 69 29 20 00 	mov    0x202969(%rip),%rax        # 604608 <stdin@@GLIBC_2.2.5>
  401c9f:	48 89 05 82 29 20 00 	mov    %rax,0x202982(%rip)        # 604628 <infile>
  401ca6:	b8 00 00 00 00       	mov    $0x0,%eax
  401cab:	e8 82 f8 ff ff       	callq  401532 <skip>
  401cb0:	48 85 c0             	test   %rax,%rax
  401cb3:	75 14                	jne    401cc9 <read_line+0x81>
  401cb5:	bf af 31 40 00       	mov    $0x4031af,%edi
  401cba:	e8 51 ee ff ff       	callq  400b10 <puts@plt>
  401cbf:	bf 00 00 00 00       	mov    $0x0,%edi
  401cc4:	e8 77 ef ff ff       	callq  400c40 <exit@plt>
  401cc9:	8b 15 51 29 20 00    	mov    0x202951(%rip),%edx        # 604620 <num_input_strings>
  401ccf:	48 63 c2             	movslq %edx,%rax
  401cd2:	48 8d 34 80          	lea    (%rax,%rax,4),%rsi
  401cd6:	48 c1 e6 04          	shl    $0x4,%rsi
  401cda:	48 81 c6 40 46 60 00 	add    $0x604640,%rsi
  401ce1:	48 89 f7             	mov    %rsi,%rdi
  401ce4:	b8 00 00 00 00       	mov    $0x0,%eax
  401ce9:	48 c7 c1 ff ff ff ff 	mov    $0xffffffffffffffff,%rcx
  401cf0:	f2 ae                	repnz scas %es:(%rdi),%al
  401cf2:	48 f7 d1             	not    %rcx
  401cf5:	48 83 e9 01          	sub    $0x1,%rcx
  401cf9:	83 f9 4e             	cmp    $0x4e,%ecx
  401cfc:	7e 46                	jle    401d44 <read_line+0xfc>
  401cfe:	bf d8 31 40 00       	mov    $0x4031d8,%edi
  401d03:	e8 08 ee ff ff       	callq  400b10 <puts@plt>
  401d08:	8b 05 12 29 20 00    	mov    0x202912(%rip),%eax        # 604620 <num_input_strings>
  401d0e:	8d 50 01             	lea    0x1(%rax),%edx
  401d11:	89 15 09 29 20 00    	mov    %edx,0x202909(%rip)        # 604620 <num_input_strings>
  401d17:	48 98                	cltq   
  401d19:	48 6b c0 50          	imul   $0x50,%rax,%rax
  401d1d:	48 bf 2a 2a 2a 74 72 	movabs $0x636e7572742a2a2a,%rdi
  401d24:	75 6e 63 
  401d27:	48 89 b8 40 46 60 00 	mov    %rdi,0x604640(%rax)
  401d2e:	48 bf 61 74 65 64 2a 	movabs $0x2a2a2a64657461,%rdi
  401d35:	2a 2a 00 
  401d38:	48 89 b8 48 46 60 00 	mov    %rdi,0x604648(%rax)
  401d3f:	e8 2c f9 ff ff       	callq  401670 <explode_bomb>
  401d44:	83 e9 01             	sub    $0x1,%ecx
  401d47:	48 63 c9             	movslq %ecx,%rcx
  401d4a:	48 63 c2             	movslq %edx,%rax
  401d4d:	48 8d 04 80          	lea    (%rax,%rax,4),%rax
  401d51:	48 c1 e0 04          	shl    $0x4,%rax
  401d55:	c6 84 01 40 46 60 00 	movb   $0x0,0x604640(%rcx,%rax,1)
  401d5c:	00 
  401d5d:	83 c2 01             	add    $0x1,%edx
  401d60:	89 15 ba 28 20 00    	mov    %edx,0x2028ba(%rip)        # 604620 <num_input_strings>
  401d66:	48 89 f0             	mov    %rsi,%rax
  401d69:	48 83 c4 08          	add    $0x8,%rsp
  401d6d:	c3                   	retq   
  401d6e:	66 90                	xchg   %ax,%ax

0000000000401d70 <sigalrm_handler>:
  401d70:	48 83 ec 08          	sub    $0x8,%rsp
  401d74:	ba 00 00 00 00       	mov    $0x0,%edx
  401d79:	be 38 33 40 00       	mov    $0x403338,%esi
  401d7e:	48 8b 3d 8b 28 20 00 	mov    0x20288b(%rip),%rdi        # 604610 <stderr@@GLIBC_2.2.5>
  401d85:	b8 00 00 00 00       	mov    $0x0,%eax
  401d8a:	e8 21 ee ff ff       	callq  400bb0 <fprintf@plt>
  401d8f:	bf 01 00 00 00       	mov    $0x1,%edi
  401d94:	e8 a7 ee ff ff       	callq  400c40 <exit@plt>

0000000000401d99 <rio_readlineb>:
  401d99:	41 57                	push   %r15
  401d9b:	41 56                	push   %r14
  401d9d:	41 55                	push   %r13
  401d9f:	41 54                	push   %r12
  401da1:	55                   	push   %rbp
  401da2:	53                   	push   %rbx
  401da3:	48 83 ec 38          	sub    $0x38,%rsp
  401da7:	49 89 f6             	mov    %rsi,%r14
  401daa:	48 89 54 24 18       	mov    %rdx,0x18(%rsp)
  401daf:	48 83 fa 01          	cmp    $0x1,%rdx
  401db3:	0f 86 c2 00 00 00    	jbe    401e7b <rio_readlineb+0xe2>
  401db9:	48 89 fb             	mov    %rdi,%rbx
  401dbc:	41 bd 01 00 00 00    	mov    $0x1,%r13d
  401dc2:	4c 8d 67 10          	lea    0x10(%rdi),%r12
  401dc6:	eb 2e                	jmp    401df6 <rio_readlineb+0x5d>
  401dc8:	ba 00 20 00 00       	mov    $0x2000,%edx
  401dcd:	4c 89 e6             	mov    %r12,%rsi
  401dd0:	8b 3b                	mov    (%rbx),%edi
  401dd2:	e8 89 ed ff ff       	callq  400b60 <read@plt>
  401dd7:	89 43 04             	mov    %eax,0x4(%rbx)
  401dda:	85 c0                	test   %eax,%eax
  401ddc:	79 0f                	jns    401ded <rio_readlineb+0x54>
  401dde:	e8 0d ed ff ff       	callq  400af0 <__errno_location@plt>
  401de3:	83 38 04             	cmpl   $0x4,(%rax)
  401de6:	74 0e                	je     401df6 <rio_readlineb+0x5d>
  401de8:	e9 9d 00 00 00       	jmpq   401e8a <rio_readlineb+0xf1>
  401ded:	85 c0                	test   %eax,%eax
  401def:	90                   	nop
  401df0:	74 6c                	je     401e5e <rio_readlineb+0xc5>
  401df2:	4c 89 63 08          	mov    %r12,0x8(%rbx)
  401df6:	8b 6b 04             	mov    0x4(%rbx),%ebp
  401df9:	85 ed                	test   %ebp,%ebp
  401dfb:	7e cb                	jle    401dc8 <rio_readlineb+0x2f>
  401dfd:	85 ed                	test   %ebp,%ebp
  401dff:	41 0f 95 c7          	setne  %r15b
  401e03:	41 0f b6 c7          	movzbl %r15b,%eax
  401e07:	89 44 24 0c          	mov    %eax,0xc(%rsp)
  401e0b:	45 0f b6 ff          	movzbl %r15b,%r15d
  401e0f:	48 8b 4b 08          	mov    0x8(%rbx),%rcx
  401e13:	4c 89 fa             	mov    %r15,%rdx
  401e16:	48 89 4c 24 10       	mov    %rcx,0x10(%rsp)
  401e1b:	48 89 ce             	mov    %rcx,%rsi
  401e1e:	48 8d 7c 24 2f       	lea    0x2f(%rsp),%rdi
  401e23:	e8 a8 ed ff ff       	callq  400bd0 <memcpy@plt>
  401e28:	4c 03 7c 24 10       	add    0x10(%rsp),%r15
  401e2d:	4c 89 7b 08          	mov    %r15,0x8(%rbx)
  401e31:	8b 44 24 0c          	mov    0xc(%rsp),%eax
  401e35:	29 c5                	sub    %eax,%ebp
  401e37:	89 6b 04             	mov    %ebp,0x4(%rbx)
  401e3a:	83 f8 01             	cmp    $0x1,%eax
  401e3d:	75 13                	jne    401e52 <rio_readlineb+0xb9>
  401e3f:	49 83 c6 01          	add    $0x1,%r14
  401e43:	0f b6 44 24 2f       	movzbl 0x2f(%rsp),%eax
  401e48:	41 88 46 ff          	mov    %al,-0x1(%r14)
  401e4c:	3c 0a                	cmp    $0xa,%al
  401e4e:	75 18                	jne    401e68 <rio_readlineb+0xcf>
  401e50:	eb 2f                	jmp    401e81 <rio_readlineb+0xe8>
  401e52:	83 7c 24 0c 00       	cmpl   $0x0,0xc(%rsp)
  401e57:	75 3a                	jne    401e93 <rio_readlineb+0xfa>
  401e59:	44 89 e8             	mov    %r13d,%eax
  401e5c:	eb 03                	jmp    401e61 <rio_readlineb+0xc8>
  401e5e:	44 89 e8             	mov    %r13d,%eax
  401e61:	83 f8 01             	cmp    $0x1,%eax
  401e64:	75 1b                	jne    401e81 <rio_readlineb+0xe8>
  401e66:	eb 34                	jmp    401e9c <rio_readlineb+0x103>
  401e68:	41 83 c5 01          	add    $0x1,%r13d
  401e6c:	49 63 c5             	movslq %r13d,%rax
  401e6f:	48 3b 44 24 18       	cmp    0x18(%rsp),%rax
  401e74:	73 0b                	jae    401e81 <rio_readlineb+0xe8>
  401e76:	e9 7b ff ff ff       	jmpq   401df6 <rio_readlineb+0x5d>
  401e7b:	41 bd 01 00 00 00    	mov    $0x1,%r13d
  401e81:	41 c6 06 00          	movb   $0x0,(%r14)
  401e85:	49 63 c5             	movslq %r13d,%rax
  401e88:	eb 17                	jmp    401ea1 <rio_readlineb+0x108>
  401e8a:	48 c7 c0 ff ff ff ff 	mov    $0xffffffffffffffff,%rax
  401e91:	eb 0e                	jmp    401ea1 <rio_readlineb+0x108>
  401e93:	48 c7 c0 ff ff ff ff 	mov    $0xffffffffffffffff,%rax
  401e9a:	eb 05                	jmp    401ea1 <rio_readlineb+0x108>
  401e9c:	b8 00 00 00 00       	mov    $0x0,%eax
  401ea1:	48 83 c4 38          	add    $0x38,%rsp
  401ea5:	5b                   	pop    %rbx
  401ea6:	5d                   	pop    %rbp
  401ea7:	41 5c                	pop    %r12
  401ea9:	41 5d                	pop    %r13
  401eab:	41 5e                	pop    %r14
  401ead:	41 5f                	pop    %r15
  401eaf:	c3                   	retq   

0000000000401eb0 <submitr>:
  401eb0:	41 57                	push   %r15
  401eb2:	41 56                	push   %r14
  401eb4:	41 55                	push   %r13
  401eb6:	41 54                	push   %r12
  401eb8:	55                   	push   %rbp
  401eb9:	53                   	push   %rbx
  401eba:	48 81 ec 68 a0 00 00 	sub    $0xa068,%rsp
  401ec1:	48 89 fd             	mov    %rdi,%rbp
  401ec4:	41 89 f5             	mov    %esi,%r13d
  401ec7:	48 89 54 24 08       	mov    %rdx,0x8(%rsp)
  401ecc:	48 89 4c 24 10       	mov    %rcx,0x10(%rsp)
  401ed1:	4c 89 44 24 18       	mov    %r8,0x18(%rsp)
  401ed6:	4d 89 cf             	mov    %r9,%r15
  401ed9:	48 8b 9c 24 a0 a0 00 	mov    0xa0a0(%rsp),%rbx
  401ee0:	00 
  401ee1:	4c 8b b4 24 a8 a0 00 	mov    0xa0a8(%rsp),%r14
  401ee8:	00 
  401ee9:	c7 84 24 3c 20 00 00 	movl   $0x0,0x203c(%rsp)
  401ef0:	00 00 00 00 
  401ef4:	ba 00 00 00 00       	mov    $0x0,%edx
  401ef9:	be 01 00 00 00       	mov    $0x1,%esi
  401efe:	bf 02 00 00 00       	mov    $0x2,%edi
  401f03:	e8 78 ed ff ff       	callq  400c80 <socket@plt>
  401f08:	41 89 c4             	mov    %eax,%r12d
  401f0b:	85 c0                	test   %eax,%eax
  401f0d:	79 50                	jns    401f5f <submitr+0xaf>
  401f0f:	48 b8 45 72 72 6f 72 	movabs $0x43203a726f727245,%rax
  401f16:	3a 20 43 
  401f19:	49 89 06             	mov    %rax,(%r14)
  401f1c:	48 b8 6c 69 65 6e 74 	movabs $0x6e7520746e65696c,%rax
  401f23:	20 75 6e 
  401f26:	49 89 46 08          	mov    %rax,0x8(%r14)
  401f2a:	48 b8 61 62 6c 65 20 	movabs $0x206f7420656c6261,%rax
  401f31:	74 6f 20 
  401f34:	49 89 46 10          	mov    %rax,0x10(%r14)
  401f38:	48 b8 63 72 65 61 74 	movabs $0x7320657461657263,%rax
  401f3f:	65 20 73 
  401f42:	49 89 46 18          	mov    %rax,0x18(%r14)
  401f46:	41 c7 46 20 6f 63 6b 	movl   $0x656b636f,0x20(%r14)
  401f4d:	65 
  401f4e:	66 41 c7 46 24 74 00 	movw   $0x74,0x24(%r14)
  401f55:	b8 ff ff ff ff       	mov    $0xffffffff,%eax
  401f5a:	e9 f9 06 00 00       	jmpq   402658 <submitr+0x7a8>
  401f5f:	48 89 ef             	mov    %rbp,%rdi
  401f62:	e8 39 ec ff ff       	callq  400ba0 <gethostbyname@plt>
  401f67:	48 85 c0             	test   %rax,%rax
  401f6a:	75 6b                	jne    401fd7 <submitr+0x127>
  401f6c:	48 b8 45 72 72 6f 72 	movabs $0x44203a726f727245,%rax
  401f73:	3a 20 44 
  401f76:	49 89 06             	mov    %rax,(%r14)
  401f79:	48 b8 4e 53 20 69 73 	movabs $0x6e7520736920534e,%rax
  401f80:	20 75 6e 
  401f83:	49 89 46 08          	mov    %rax,0x8(%r14)
  401f87:	48 b8 61 62 6c 65 20 	movabs $0x206f7420656c6261,%rax
  401f8e:	74 6f 20 
  401f91:	49 89 46 10          	mov    %rax,0x10(%r14)
  401f95:	48 b8 72 65 73 6f 6c 	movabs $0x2065766c6f736572,%rax
  401f9c:	76 65 20 
  401f9f:	49 89 46 18          	mov    %rax,0x18(%r14)
  401fa3:	48 b8 73 65 72 76 65 	movabs $0x6120726576726573,%rax
  401faa:	72 20 61 
  401fad:	49 89 46 20          	mov    %rax,0x20(%r14)
  401fb1:	41 c7 46 28 64 64 72 	movl   $0x65726464,0x28(%r14)
  401fb8:	65 
  401fb9:	66 41 c7 46 2c 73 73 	movw   $0x7373,0x2c(%r14)
  401fc0:	41 c6 46 2e 00       	movb   $0x0,0x2e(%r14)
  401fc5:	44 89 e7             	mov    %r12d,%edi
  401fc8:	e8 83 eb ff ff       	callq  400b50 <close@plt>
  401fcd:	b8 ff ff ff ff       	mov    $0xffffffff,%eax
  401fd2:	e9 81 06 00 00       	jmpq   402658 <submitr+0x7a8>
  401fd7:	48 c7 84 24 50 a0 00 	movq   $0x0,0xa050(%rsp)
  401fde:	00 00 00 00 00 
  401fe3:	48 c7 84 24 58 a0 00 	movq   $0x0,0xa058(%rsp)
  401fea:	00 00 00 00 00 
  401fef:	66 c7 84 24 50 a0 00 	movw   $0x2,0xa050(%rsp)
  401ff6:	00 02 00 
  401ff9:	48 63 50 14          	movslq 0x14(%rax),%rdx
  401ffd:	48 8d b4 24 54 a0 00 	lea    0xa054(%rsp),%rsi
  402004:	00 
  402005:	48 8b 40 18          	mov    0x18(%rax),%rax
  402009:	48 8b 38             	mov    (%rax),%rdi
  40200c:	e8 ef eb ff ff       	callq  400c00 <bcopy@plt>
  402011:	66 41 c1 cd 08       	ror    $0x8,%r13w
  402016:	66 44 89 ac 24 52 a0 	mov    %r13w,0xa052(%rsp)
  40201d:	00 00 
  40201f:	ba 10 00 00 00       	mov    $0x10,%edx
  402024:	48 8d b4 24 50 a0 00 	lea    0xa050(%rsp),%rsi
  40202b:	00 
  40202c:	44 89 e7             	mov    %r12d,%edi
  40202f:	e8 1c ec ff ff       	callq  400c50 <connect@plt>
  402034:	85 c0                	test   %eax,%eax
  402036:	79 5d                	jns    402095 <submitr+0x1e5>
  402038:	48 b8 45 72 72 6f 72 	movabs $0x55203a726f727245,%rax
  40203f:	3a 20 55 
  402042:	49 89 06             	mov    %rax,(%r14)
  402045:	48 b8 6e 61 62 6c 65 	movabs $0x6f7420656c62616e,%rax
  40204c:	20 74 6f 
  40204f:	49 89 46 08          	mov    %rax,0x8(%r14)
  402053:	48 b8 20 63 6f 6e 6e 	movabs $0x7463656e6e6f6320,%rax
  40205a:	65 63 74 
  40205d:	49 89 46 10          	mov    %rax,0x10(%r14)
  402061:	48 b8 20 74 6f 20 74 	movabs $0x20656874206f7420,%rax
  402068:	68 65 20 
  40206b:	49 89 46 18          	mov    %rax,0x18(%r14)
  40206f:	41 c7 46 20 73 65 72 	movl   $0x76726573,0x20(%r14)
  402076:	76 
  402077:	66 41 c7 46 24 65 72 	movw   $0x7265,0x24(%r14)
  40207e:	41 c6 46 26 00       	movb   $0x0,0x26(%r14)
  402083:	44 89 e7             	mov    %r12d,%edi
  402086:	e8 c5 ea ff ff       	callq  400b50 <close@plt>
  40208b:	b8 ff ff ff ff       	mov    $0xffffffff,%eax
  402090:	e9 c3 05 00 00       	jmpq   402658 <submitr+0x7a8>
  402095:	48 c7 c2 ff ff ff ff 	mov    $0xffffffffffffffff,%rdx
  40209c:	48 89 df             	mov    %rbx,%rdi
  40209f:	b8 00 00 00 00       	mov    $0x0,%eax
  4020a4:	48 89 d1             	mov    %rdx,%rcx
  4020a7:	f2 ae                	repnz scas %es:(%rdi),%al
  4020a9:	48 f7 d1             	not    %rcx
  4020ac:	48 89 ce             	mov    %rcx,%rsi
  4020af:	48 8b 7c 24 08       	mov    0x8(%rsp),%rdi
  4020b4:	48 89 d1             	mov    %rdx,%rcx
  4020b7:	f2 ae                	repnz scas %es:(%rdi),%al
  4020b9:	49 89 c8             	mov    %rcx,%r8
  4020bc:	48 8b 7c 24 10       	mov    0x10(%rsp),%rdi
  4020c1:	48 89 d1             	mov    %rdx,%rcx
  4020c4:	f2 ae                	repnz scas %es:(%rdi),%al
  4020c6:	48 f7 d1             	not    %rcx
  4020c9:	49 89 c9             	mov    %rcx,%r9
  4020cc:	4c 89 ff             	mov    %r15,%rdi
  4020cf:	48 89 d1             	mov    %rdx,%rcx
  4020d2:	f2 ae                	repnz scas %es:(%rdi),%al
  4020d4:	4d 29 c1             	sub    %r8,%r9
  4020d7:	49 29 c9             	sub    %rcx,%r9
  4020da:	48 8d 44 76 fd       	lea    -0x3(%rsi,%rsi,2),%rax
  4020df:	49 8d 44 01 7b       	lea    0x7b(%r9,%rax,1),%rax
  4020e4:	48 3d 00 20 00 00    	cmp    $0x2000,%rax
  4020ea:	76 73                	jbe    40215f <submitr+0x2af>
  4020ec:	48 b8 45 72 72 6f 72 	movabs $0x52203a726f727245,%rax
  4020f3:	3a 20 52 
  4020f6:	49 89 06             	mov    %rax,(%r14)
  4020f9:	48 b8 65 73 75 6c 74 	movabs $0x747320746c757365,%rax
  402100:	20 73 74 
  402103:	49 89 46 08          	mov    %rax,0x8(%r14)
  402107:	48 b8 72 69 6e 67 20 	movabs $0x6f6f7420676e6972,%rax
  40210e:	74 6f 6f 
  402111:	49 89 46 10          	mov    %rax,0x10(%r14)
  402115:	48 b8 20 6c 61 72 67 	movabs $0x202e656772616c20,%rax
  40211c:	65 2e 20 
  40211f:	49 89 46 18          	mov    %rax,0x18(%r14)
  402123:	48 b8 49 6e 63 72 65 	movabs $0x6573616572636e49,%rax
  40212a:	61 73 65 
  40212d:	49 89 46 20          	mov    %rax,0x20(%r14)
  402131:	48 b8 20 53 55 42 4d 	movabs $0x5254494d42555320,%rax
  402138:	49 54 52 
  40213b:	49 89 46 28          	mov    %rax,0x28(%r14)
  40213f:	48 b8 5f 4d 41 58 42 	movabs $0x46554258414d5f,%rax
  402146:	55 46 00 
  402149:	49 89 46 30          	mov    %rax,0x30(%r14)
  40214d:	44 89 e7             	mov    %r12d,%edi
  402150:	e8 fb e9 ff ff       	callq  400b50 <close@plt>
  402155:	b8 ff ff ff ff       	mov    $0xffffffff,%eax
  40215a:	e9 f9 04 00 00       	jmpq   402658 <submitr+0x7a8>
  40215f:	48 8d 94 24 40 40 00 	lea    0x4040(%rsp),%rdx
  402166:	00 
  402167:	b9 00 04 00 00       	mov    $0x400,%ecx
  40216c:	b8 00 00 00 00       	mov    $0x0,%eax
  402171:	48 89 d7             	mov    %rdx,%rdi
  402174:	f3 48 ab             	rep stos %rax,%es:(%rdi)
  402177:	48 89 df             	mov    %rbx,%rdi
  40217a:	48 c7 c1 ff ff ff ff 	mov    $0xffffffffffffffff,%rcx
  402181:	f2 ae                	repnz scas %es:(%rdi),%al
  402183:	48 f7 d1             	not    %rcx
  402186:	48 83 e9 01          	sub    $0x1,%rcx
  40218a:	85 c9                	test   %ecx,%ecx
  40218c:	0f 84 d3 03 00 00    	je     402565 <submitr+0x6b5>
  402192:	8d 41 ff             	lea    -0x1(%rcx),%eax
  402195:	4c 8d 6c 03 01       	lea    0x1(%rbx,%rax,1),%r13
  40219a:	48 89 d5             	mov    %rdx,%rbp
  40219d:	0f b6 13             	movzbl (%rbx),%edx
  4021a0:	80 fa 2a             	cmp    $0x2a,%dl
  4021a3:	74 1f                	je     4021c4 <submitr+0x314>
  4021a5:	8d 42 d3             	lea    -0x2d(%rdx),%eax
  4021a8:	3c 01                	cmp    $0x1,%al
  4021aa:	76 18                	jbe    4021c4 <submitr+0x314>
  4021ac:	80 fa 5f             	cmp    $0x5f,%dl
  4021af:	74 13                	je     4021c4 <submitr+0x314>
  4021b1:	8d 42 d0             	lea    -0x30(%rdx),%eax
  4021b4:	3c 09                	cmp    $0x9,%al
  4021b6:	76 0c                	jbe    4021c4 <submitr+0x314>
  4021b8:	89 d0                	mov    %edx,%eax
  4021ba:	83 e0 df             	and    $0xffffffdf,%eax
  4021bd:	83 e8 41             	sub    $0x41,%eax
  4021c0:	3c 19                	cmp    $0x19,%al
  4021c2:	77 09                	ja     4021cd <submitr+0x31d>
  4021c4:	48 8d 45 01          	lea    0x1(%rbp),%rax
  4021c8:	88 55 00             	mov    %dl,0x0(%rbp)
  4021cb:	eb 52                	jmp    40221f <submitr+0x36f>
  4021cd:	80 fa 20             	cmp    $0x20,%dl
  4021d0:	75 0a                	jne    4021dc <submitr+0x32c>
  4021d2:	48 8d 45 01          	lea    0x1(%rbp),%rax
  4021d6:	c6 45 00 2b          	movb   $0x2b,0x0(%rbp)
  4021da:	eb 43                	jmp    40221f <submitr+0x36f>
  4021dc:	8d 42 e0             	lea    -0x20(%rdx),%eax
  4021df:	3c 5f                	cmp    $0x5f,%al
  4021e1:	76 09                	jbe    4021ec <submitr+0x33c>
  4021e3:	80 fa 09             	cmp    $0x9,%dl
  4021e6:	0f 85 e4 03 00 00    	jne    4025d0 <submitr+0x720>
  4021ec:	0f b6 d2             	movzbl %dl,%edx
  4021ef:	be 10 34 40 00       	mov    $0x403410,%esi
  4021f4:	48 8d 7c 24 20       	lea    0x20(%rsp),%rdi
  4021f9:	b8 00 00 00 00       	mov    $0x0,%eax
  4021fe:	e8 2d ea ff ff       	callq  400c30 <sprintf@plt>
  402203:	0f b6 44 24 20       	movzbl 0x20(%rsp),%eax
  402208:	88 45 00             	mov    %al,0x0(%rbp)
  40220b:	0f b6 44 24 21       	movzbl 0x21(%rsp),%eax
  402210:	88 45 01             	mov    %al,0x1(%rbp)
  402213:	48 8d 45 03          	lea    0x3(%rbp),%rax
  402217:	0f b6 54 24 22       	movzbl 0x22(%rsp),%edx
  40221c:	88 55 02             	mov    %dl,0x2(%rbp)
  40221f:	48 83 c3 01          	add    $0x1,%rbx
  402223:	4c 39 eb             	cmp    %r13,%rbx
  402226:	0f 84 39 03 00 00    	je     402565 <submitr+0x6b5>
  40222c:	48 89 c5             	mov    %rax,%rbp
  40222f:	e9 69 ff ff ff       	jmpq   40219d <submitr+0x2ed>
  402234:	48 89 da             	mov    %rbx,%rdx
  402237:	48 89 ee             	mov    %rbp,%rsi
  40223a:	44 89 e7             	mov    %r12d,%edi
  40223d:	e8 de e8 ff ff       	callq  400b20 <write@plt>
  402242:	48 85 c0             	test   %rax,%rax
  402245:	7f 10                	jg     402257 <submitr+0x3a7>
  402247:	e8 a4 e8 ff ff       	callq  400af0 <__errno_location@plt>
  40224c:	83 38 04             	cmpl   $0x4,(%rax)
  40224f:	90                   	nop
  402250:	75 12                	jne    402264 <submitr+0x3b4>
  402252:	b8 00 00 00 00       	mov    $0x0,%eax
  402257:	48 01 c5             	add    %rax,%rbp
  40225a:	48 29 c3             	sub    %rax,%rbx
  40225d:	75 d5                	jne    402234 <submitr+0x384>
  40225f:	4d 85 ed             	test   %r13,%r13
  402262:	79 5f                	jns    4022c3 <submitr+0x413>
  402264:	48 b8 45 72 72 6f 72 	movabs $0x43203a726f727245,%rax
  40226b:	3a 20 43 
  40226e:	49 89 06             	mov    %rax,(%r14)
  402271:	48 b8 6c 69 65 6e 74 	movabs $0x6e7520746e65696c,%rax
  402278:	20 75 6e 
  40227b:	49 89 46 08          	mov    %rax,0x8(%r14)
  40227f:	48 b8 61 62 6c 65 20 	movabs $0x206f7420656c6261,%rax
  402286:	74 6f 20 
  402289:	49 89 46 10          	mov    %rax,0x10(%r14)
  40228d:	48 b8 77 72 69 74 65 	movabs $0x6f74206574697277,%rax
  402294:	20 74 6f 
  402297:	49 89 46 18          	mov    %rax,0x18(%r14)
  40229b:	48 b8 20 74 68 65 20 	movabs $0x7265732065687420,%rax
  4022a2:	73 65 72 
  4022a5:	49 89 46 20          	mov    %rax,0x20(%r14)
  4022a9:	41 c7 46 28 76 65 72 	movl   $0x726576,0x28(%r14)
  4022b0:	00 
  4022b1:	44 89 e7             	mov    %r12d,%edi
  4022b4:	e8 97 e8 ff ff       	callq  400b50 <close@plt>
  4022b9:	b8 ff ff ff ff       	mov    $0xffffffff,%eax
  4022be:	e9 95 03 00 00       	jmpq   402658 <submitr+0x7a8>
  4022c3:	44 89 a4 24 40 80 00 	mov    %r12d,0x8040(%rsp)
  4022ca:	00 
  4022cb:	c7 84 24 44 80 00 00 	movl   $0x0,0x8044(%rsp)
  4022d2:	00 00 00 00 
  4022d6:	48 8d 84 24 50 80 00 	lea    0x8050(%rsp),%rax
  4022dd:	00 
  4022de:	48 89 84 24 48 80 00 	mov    %rax,0x8048(%rsp)
  4022e5:	00 
  4022e6:	ba 00 20 00 00       	mov    $0x2000,%edx
  4022eb:	48 8d b4 24 40 60 00 	lea    0x6040(%rsp),%rsi
  4022f2:	00 
  4022f3:	48 8d bc 24 40 80 00 	lea    0x8040(%rsp),%rdi
  4022fa:	00 
  4022fb:	e8 99 fa ff ff       	callq  401d99 <rio_readlineb>
  402300:	48 85 c0             	test   %rax,%rax
  402303:	7f 74                	jg     402379 <submitr+0x4c9>
  402305:	48 b8 45 72 72 6f 72 	movabs $0x43203a726f727245,%rax
  40230c:	3a 20 43 
  40230f:	49 89 06             	mov    %rax,(%r14)
  402312:	48 b8 6c 69 65 6e 74 	movabs $0x6e7520746e65696c,%rax
  402319:	20 75 6e 
  40231c:	49 89 46 08          	mov    %rax,0x8(%r14)
  402320:	48 b8 61 62 6c 65 20 	movabs $0x206f7420656c6261,%rax
  402327:	74 6f 20 
  40232a:	49 89 46 10          	mov    %rax,0x10(%r14)
  40232e:	48 b8 72 65 61 64 20 	movabs $0x7269662064616572,%rax
  402335:	66 69 72 
  402338:	49 89 46 18          	mov    %rax,0x18(%r14)
  40233c:	48 b8 73 74 20 68 65 	movabs $0x6564616568207473,%rax
  402343:	61 64 65 
  402346:	49 89 46 20          	mov    %rax,0x20(%r14)
  40234a:	48 b8 72 20 66 72 6f 	movabs $0x73206d6f72662072,%rax
  402351:	6d 20 73 
  402354:	49 89 46 28          	mov    %rax,0x28(%r14)
  402358:	41 c7 46 30 65 72 76 	movl   $0x65767265,0x30(%r14)
  40235f:	65 
  402360:	66 41 c7 46 34 72 00 	movw   $0x72,0x34(%r14)
  402367:	44 89 e7             	mov    %r12d,%edi
  40236a:	e8 e1 e7 ff ff       	callq  400b50 <close@plt>
  40236f:	b8 ff ff ff ff       	mov    $0xffffffff,%eax
  402374:	e9 df 02 00 00       	jmpq   402658 <submitr+0x7a8>
  402379:	4c 8d 44 24 30       	lea    0x30(%rsp),%r8
  40237e:	48 8d 8c 24 3c 20 00 	lea    0x203c(%rsp),%rcx
  402385:	00 
  402386:	48 8d 94 24 40 20 00 	lea    0x2040(%rsp),%rdx
  40238d:	00 
  40238e:	be 17 34 40 00       	mov    $0x403417,%esi
  402393:	48 8d bc 24 40 60 00 	lea    0x6040(%rsp),%rdi
  40239a:	00 
  40239b:	b8 00 00 00 00       	mov    $0x0,%eax
  4023a0:	e8 4b e8 ff ff       	callq  400bf0 <__isoc99_sscanf@plt>
  4023a5:	8b 94 24 3c 20 00 00 	mov    0x203c(%rsp),%edx
  4023ac:	81 fa c8 00 00 00    	cmp    $0xc8,%edx
  4023b2:	0f 84 b2 00 00 00    	je     40246a <submitr+0x5ba>
  4023b8:	48 8d 4c 24 30       	lea    0x30(%rsp),%rcx
  4023bd:	be 60 33 40 00       	mov    $0x403360,%esi
  4023c2:	4c 89 f7             	mov    %r14,%rdi
  4023c5:	b8 00 00 00 00       	mov    $0x0,%eax
  4023ca:	e8 61 e8 ff ff       	callq  400c30 <sprintf@plt>
  4023cf:	44 89 e7             	mov    %r12d,%edi
  4023d2:	e8 79 e7 ff ff       	callq  400b50 <close@plt>
  4023d7:	b8 ff ff ff ff       	mov    $0xffffffff,%eax
  4023dc:	e9 77 02 00 00       	jmpq   402658 <submitr+0x7a8>
  4023e1:	ba 00 20 00 00       	mov    $0x2000,%edx
  4023e6:	48 8d b4 24 40 60 00 	lea    0x6040(%rsp),%rsi
  4023ed:	00 
  4023ee:	48 8d bc 24 40 80 00 	lea    0x8040(%rsp),%rdi
  4023f5:	00 
  4023f6:	e8 9e f9 ff ff       	callq  401d99 <rio_readlineb>
  4023fb:	48 85 c0             	test   %rax,%rax
  4023fe:	7f 6a                	jg     40246a <submitr+0x5ba>
  402400:	48 b8 45 72 72 6f 72 	movabs $0x43203a726f727245,%rax
  402407:	3a 20 43 
  40240a:	49 89 06             	mov    %rax,(%r14)
  40240d:	48 b8 6c 69 65 6e 74 	movabs $0x6e7520746e65696c,%rax
  402414:	20 75 6e 
  402417:	49 89 46 08          	mov    %rax,0x8(%r14)
  40241b:	48 b8 61 62 6c 65 20 	movabs $0x206f7420656c6261,%rax
  402422:	74 6f 20 
  402425:	49 89 46 10          	mov    %rax,0x10(%r14)
  402429:	48 b8 72 65 61 64 20 	movabs $0x6165682064616572,%rax
  402430:	68 65 61 
  402433:	49 89 46 18          	mov    %rax,0x18(%r14)
  402437:	48 b8 64 65 72 73 20 	movabs $0x6f72662073726564,%rax
  40243e:	66 72 6f 
  402441:	49 89 46 20          	mov    %rax,0x20(%r14)
  402445:	48 b8 6d 20 73 65 72 	movabs $0x726576726573206d,%rax
  40244c:	76 65 72 
  40244f:	49 89 46 28          	mov    %rax,0x28(%r14)
  402453:	41 c6 46 30 00       	movb   $0x0,0x30(%r14)
  402458:	44 89 e7             	mov    %r12d,%edi
  40245b:	e8 f0 e6 ff ff       	callq  400b50 <close@plt>
  402460:	b8 ff ff ff ff       	mov    $0xffffffff,%eax
  402465:	e9 ee 01 00 00       	jmpq   402658 <submitr+0x7a8>
  40246a:	80 bc 24 40 60 00 00 	cmpb   $0xd,0x6040(%rsp)
  402471:	0d 
  402472:	0f 85 69 ff ff ff    	jne    4023e1 <submitr+0x531>
  402478:	80 bc 24 41 60 00 00 	cmpb   $0xa,0x6041(%rsp)
  40247f:	0a 
  402480:	0f 85 5b ff ff ff    	jne    4023e1 <submitr+0x531>
  402486:	80 bc 24 42 60 00 00 	cmpb   $0x0,0x6042(%rsp)
  40248d:	00 
  40248e:	0f 85 4d ff ff ff    	jne    4023e1 <submitr+0x531>
  402494:	ba 00 20 00 00       	mov    $0x2000,%edx
  402499:	48 8d b4 24 40 60 00 	lea    0x6040(%rsp),%rsi
  4024a0:	00 
  4024a1:	48 8d bc 24 40 80 00 	lea    0x8040(%rsp),%rdi
  4024a8:	00 
  4024a9:	e8 eb f8 ff ff       	callq  401d99 <rio_readlineb>
  4024ae:	48 85 c0             	test   %rax,%rax
  4024b1:	7f 73                	jg     402526 <submitr+0x676>
  4024b3:	48 b8 45 72 72 6f 72 	movabs $0x43203a726f727245,%rax
  4024ba:	3a 20 43 
  4024bd:	49 89 06             	mov    %rax,(%r14)
  4024c0:	48 b8 6c 69 65 6e 74 	movabs $0x6e7520746e65696c,%rax
  4024c7:	20 75 6e 
  4024ca:	49 89 46 08          	mov    %rax,0x8(%r14)
  4024ce:	48 b8 61 62 6c 65 20 	movabs $0x206f7420656c6261,%rax
  4024d5:	74 6f 20 
  4024d8:	49 89 46 10          	mov    %rax,0x10(%r14)
  4024dc:	48 b8 72 65 61 64 20 	movabs $0x6174732064616572,%rax
  4024e3:	73 74 61 
  4024e6:	49 89 46 18          	mov    %rax,0x18(%r14)
  4024ea:	48 b8 74 75 73 20 6d 	movabs $0x7373656d20737574,%rax
  4024f1:	65 73 73 
  4024f4:	49 89 46 20          	mov    %rax,0x20(%r14)
  4024f8:	48 b8 61 67 65 20 66 	movabs $0x6d6f726620656761,%rax
  4024ff:	72 6f 6d 
  402502:	49 89 46 28          	mov    %rax,0x28(%r14)
  402506:	48 b8 20 73 65 72 76 	movabs $0x72657672657320,%rax
  40250d:	65 72 00 
  402510:	49 89 46 30          	mov    %rax,0x30(%r14)
  402514:	44 89 e7             	mov    %r12d,%edi
  402517:	e8 34 e6 ff ff       	callq  400b50 <close@plt>
  40251c:	b8 ff ff ff ff       	mov    $0xffffffff,%eax
  402521:	e9 32 01 00 00       	jmpq   402658 <submitr+0x7a8>
  402526:	48 8d b4 24 40 60 00 	lea    0x6040(%rsp),%rsi
  40252d:	00 
  40252e:	4c 89 f7             	mov    %r14,%rdi
  402531:	e8 ca e5 ff ff       	callq  400b00 <strcpy@plt>
  402536:	44 89 e7             	mov    %r12d,%edi
  402539:	e8 12 e6 ff ff       	callq  400b50 <close@plt>
  40253e:	41 0f b6 06          	movzbl (%r14),%eax
  402542:	83 e8 4f             	sub    $0x4f,%eax
  402545:	75 0f                	jne    402556 <submitr+0x6a6>
  402547:	41 0f b6 46 01       	movzbl 0x1(%r14),%eax
  40254c:	83 e8 4b             	sub    $0x4b,%eax
  40254f:	75 05                	jne    402556 <submitr+0x6a6>
  402551:	41 0f b6 46 02       	movzbl 0x2(%r14),%eax
  402556:	85 c0                	test   %eax,%eax
  402558:	0f 95 c0             	setne  %al
  40255b:	0f b6 c0             	movzbl %al,%eax
  40255e:	f7 d8                	neg    %eax
  402560:	e9 f3 00 00 00       	jmpq   402658 <submitr+0x7a8>
  402565:	48 8d 84 24 40 40 00 	lea    0x4040(%rsp),%rax
  40256c:	00 
  40256d:	48 89 04 24          	mov    %rax,(%rsp)
  402571:	4d 89 f9             	mov    %r15,%r9
  402574:	4c 8b 44 24 18       	mov    0x18(%rsp),%r8
  402579:	48 8b 4c 24 10       	mov    0x10(%rsp),%rcx
  40257e:	48 8b 54 24 08       	mov    0x8(%rsp),%rdx
  402583:	be 90 33 40 00       	mov    $0x403390,%esi
  402588:	48 8d bc 24 40 60 00 	lea    0x6040(%rsp),%rdi
  40258f:	00 
  402590:	b8 00 00 00 00       	mov    $0x0,%eax
  402595:	e8 96 e6 ff ff       	callq  400c30 <sprintf@plt>
  40259a:	48 8d bc 24 40 60 00 	lea    0x6040(%rsp),%rdi
  4025a1:	00 
  4025a2:	b8 00 00 00 00       	mov    $0x0,%eax
  4025a7:	48 c7 c1 ff ff ff ff 	mov    $0xffffffffffffffff,%rcx
  4025ae:	f2 ae                	repnz scas %es:(%rdi),%al
  4025b0:	48 f7 d1             	not    %rcx
  4025b3:	48 83 e9 01          	sub    $0x1,%rcx
  4025b7:	49 89 cd             	mov    %rcx,%r13
  4025ba:	0f 84 03 fd ff ff    	je     4022c3 <submitr+0x413>
  4025c0:	48 89 cb             	mov    %rcx,%rbx
  4025c3:	48 8d ac 24 40 60 00 	lea    0x6040(%rsp),%rbp
  4025ca:	00 
  4025cb:	e9 64 fc ff ff       	jmpq   402234 <submitr+0x384>
  4025d0:	48 b8 45 72 72 6f 72 	movabs $0x52203a726f727245,%rax
  4025d7:	3a 20 52 
  4025da:	49 89 06             	mov    %rax,(%r14)
  4025dd:	48 b8 65 73 75 6c 74 	movabs $0x747320746c757365,%rax
  4025e4:	20 73 74 
  4025e7:	49 89 46 08          	mov    %rax,0x8(%r14)
  4025eb:	48 b8 72 69 6e 67 20 	movabs $0x6e6f6320676e6972,%rax
  4025f2:	63 6f 6e 
  4025f5:	49 89 46 10          	mov    %rax,0x10(%r14)
  4025f9:	48 b8 74 61 69 6e 73 	movabs $0x6e6120736e696174,%rax
  402600:	20 61 6e 
  402603:	49 89 46 18          	mov    %rax,0x18(%r14)
  402607:	48 b8 20 69 6c 6c 65 	movabs $0x6c6167656c6c6920,%rax
  40260e:	67 61 6c 
  402611:	49 89 46 20          	mov    %rax,0x20(%r14)
  402615:	48 b8 20 6f 72 20 75 	movabs $0x72706e7520726f20,%rax
  40261c:	6e 70 72 
  40261f:	49 89 46 28          	mov    %rax,0x28(%r14)
  402623:	48 b8 69 6e 74 61 62 	movabs $0x20656c6261746e69,%rax
  40262a:	6c 65 20 
  40262d:	49 89 46 30          	mov    %rax,0x30(%r14)
  402631:	48 b8 63 68 61 72 61 	movabs $0x6574636172616863,%rax
  402638:	63 74 65 
  40263b:	49 89 46 38          	mov    %rax,0x38(%r14)
  40263f:	66 41 c7 46 40 72 2e 	movw   $0x2e72,0x40(%r14)
  402646:	41 c6 46 42 00       	movb   $0x0,0x42(%r14)
  40264b:	44 89 e7             	mov    %r12d,%edi
  40264e:	e8 fd e4 ff ff       	callq  400b50 <close@plt>
  402653:	b8 ff ff ff ff       	mov    $0xffffffff,%eax
  402658:	48 81 c4 68 a0 00 00 	add    $0xa068,%rsp
  40265f:	5b                   	pop    %rbx
  402660:	5d                   	pop    %rbp
  402661:	41 5c                	pop    %r12
  402663:	41 5d                	pop    %r13
  402665:	41 5e                	pop    %r14
  402667:	41 5f                	pop    %r15
  402669:	c3                   	retq   

000000000040266a <init_timeout>:
  40266a:	53                   	push   %rbx
  40266b:	89 fb                	mov    %edi,%ebx
  40266d:	85 ff                	test   %edi,%edi
  40266f:	74 1e                	je     40268f <init_timeout+0x25>
  402671:	be 70 1d 40 00       	mov    $0x401d70,%esi
  402676:	bf 0e 00 00 00       	mov    $0xe,%edi
  40267b:	e8 10 e5 ff ff       	callq  400b90 <signal@plt>
  402680:	85 db                	test   %ebx,%ebx
  402682:	bf 00 00 00 00       	mov    $0x0,%edi
  402687:	0f 49 fb             	cmovns %ebx,%edi
  40268a:	e8 b1 e4 ff ff       	callq  400b40 <alarm@plt>
  40268f:	5b                   	pop    %rbx
  402690:	c3                   	retq   

0000000000402691 <init_driver>:
  402691:	55                   	push   %rbp
  402692:	53                   	push   %rbx
  402693:	48 83 ec 18          	sub    $0x18,%rsp
  402697:	48 89 fd             	mov    %rdi,%rbp
  40269a:	be 01 00 00 00       	mov    $0x1,%esi
  40269f:	bf 0d 00 00 00       	mov    $0xd,%edi
  4026a4:	e8 e7 e4 ff ff       	callq  400b90 <signal@plt>
  4026a9:	be 01 00 00 00       	mov    $0x1,%esi
  4026ae:	bf 1d 00 00 00       	mov    $0x1d,%edi
  4026b3:	e8 d8 e4 ff ff       	callq  400b90 <signal@plt>
  4026b8:	be 01 00 00 00       	mov    $0x1,%esi
  4026bd:	bf 1d 00 00 00       	mov    $0x1d,%edi
  4026c2:	e8 c9 e4 ff ff       	callq  400b90 <signal@plt>
  4026c7:	ba 00 00 00 00       	mov    $0x0,%edx
  4026cc:	be 01 00 00 00       	mov    $0x1,%esi
  4026d1:	bf 02 00 00 00       	mov    $0x2,%edi
  4026d6:	e8 a5 e5 ff ff       	callq  400c80 <socket@plt>
  4026db:	89 c3                	mov    %eax,%ebx
  4026dd:	85 c0                	test   %eax,%eax
  4026df:	79 4f                	jns    402730 <init_driver+0x9f>
  4026e1:	48 b8 45 72 72 6f 72 	movabs $0x43203a726f727245,%rax
  4026e8:	3a 20 43 
  4026eb:	48 89 45 00          	mov    %rax,0x0(%rbp)
  4026ef:	48 b8 6c 69 65 6e 74 	movabs $0x6e7520746e65696c,%rax
  4026f6:	20 75 6e 
  4026f9:	48 89 45 08          	mov    %rax,0x8(%rbp)
  4026fd:	48 b8 61 62 6c 65 20 	movabs $0x206f7420656c6261,%rax
  402704:	74 6f 20 
  402707:	48 89 45 10          	mov    %rax,0x10(%rbp)
  40270b:	48 b8 63 72 65 61 74 	movabs $0x7320657461657263,%rax
  402712:	65 20 73 
  402715:	48 89 45 18          	mov    %rax,0x18(%rbp)
  402719:	c7 45 20 6f 63 6b 65 	movl   $0x656b636f,0x20(%rbp)
  402720:	66 c7 45 24 74 00    	movw   $0x74,0x24(%rbp)
  402726:	b8 ff ff ff ff       	mov    $0xffffffff,%eax
  40272b:	e9 f8 00 00 00       	jmpq   402828 <init_driver+0x197>
  402730:	bf 28 34 40 00       	mov    $0x403428,%edi
  402735:	e8 66 e4 ff ff       	callq  400ba0 <gethostbyname@plt>
  40273a:	48 85 c0             	test   %rax,%rax
  40273d:	75 68                	jne    4027a7 <init_driver+0x116>
  40273f:	48 b8 45 72 72 6f 72 	movabs $0x44203a726f727245,%rax
  402746:	3a 20 44 
  402749:	48 89 45 00          	mov    %rax,0x0(%rbp)
  40274d:	48 b8 4e 53 20 69 73 	movabs $0x6e7520736920534e,%rax
  402754:	20 75 6e 
  402757:	48 89 45 08          	mov    %rax,0x8(%rbp)
  40275b:	48 b8 61 62 6c 65 20 	movabs $0x206f7420656c6261,%rax
  402762:	74 6f 20 
  402765:	48 89 45 10          	mov    %rax,0x10(%rbp)
  402769:	48 b8 72 65 73 6f 6c 	movabs $0x2065766c6f736572,%rax
  402770:	76 65 20 
  402773:	48 89 45 18          	mov    %rax,0x18(%rbp)
  402777:	48 b8 73 65 72 76 65 	movabs $0x6120726576726573,%rax
  40277e:	72 20 61 
  402781:	48 89 45 20          	mov    %rax,0x20(%rbp)
  402785:	c7 45 28 64 64 72 65 	movl   $0x65726464,0x28(%rbp)
  40278c:	66 c7 45 2c 73 73    	movw   $0x7373,0x2c(%rbp)
  402792:	c6 45 2e 00          	movb   $0x0,0x2e(%rbp)
  402796:	89 df                	mov    %ebx,%edi
  402798:	e8 b3 e3 ff ff       	callq  400b50 <close@plt>
  40279d:	b8 ff ff ff ff       	mov    $0xffffffff,%eax
  4027a2:	e9 81 00 00 00       	jmpq   402828 <init_driver+0x197>
  4027a7:	48 c7 04 24 00 00 00 	movq   $0x0,(%rsp)
  4027ae:	00 
  4027af:	48 c7 44 24 08 00 00 	movq   $0x0,0x8(%rsp)
  4027b6:	00 00 
  4027b8:	66 c7 04 24 02 00    	movw   $0x2,(%rsp)
  4027be:	48 63 50 14          	movslq 0x14(%rax),%rdx
  4027c2:	48 8d 74 24 04       	lea    0x4(%rsp),%rsi
  4027c7:	48 8b 40 18          	mov    0x18(%rax),%rax
  4027cb:	48 8b 38             	mov    (%rax),%rdi
  4027ce:	e8 2d e4 ff ff       	callq  400c00 <bcopy@plt>
  4027d3:	66 c7 44 24 02 3b 6e 	movw   $0x6e3b,0x2(%rsp)
  4027da:	ba 10 00 00 00       	mov    $0x10,%edx
  4027df:	48 89 e6             	mov    %rsp,%rsi
  4027e2:	89 df                	mov    %ebx,%edi
  4027e4:	e8 67 e4 ff ff       	callq  400c50 <connect@plt>
  4027e9:	85 c0                	test   %eax,%eax
  4027eb:	79 25                	jns    402812 <init_driver+0x181>
  4027ed:	ba 28 34 40 00       	mov    $0x403428,%edx
  4027f2:	be e8 33 40 00       	mov    $0x4033e8,%esi
  4027f7:	48 89 ef             	mov    %rbp,%rdi
  4027fa:	b8 00 00 00 00       	mov    $0x0,%eax
  4027ff:	e8 2c e4 ff ff       	callq  400c30 <sprintf@plt>
  402804:	89 df                	mov    %ebx,%edi
  402806:	e8 45 e3 ff ff       	callq  400b50 <close@plt>
  40280b:	b8 ff ff ff ff       	mov    $0xffffffff,%eax
  402810:	eb 16                	jmp    402828 <init_driver+0x197>
  402812:	89 df                	mov    %ebx,%edi
  402814:	e8 37 e3 ff ff       	callq  400b50 <close@plt>
  402819:	66 c7 45 00 4f 4b    	movw   $0x4b4f,0x0(%rbp)
  40281f:	c6 45 02 00          	movb   $0x0,0x2(%rbp)
  402823:	b8 00 00 00 00       	mov    $0x0,%eax
  402828:	48 83 c4 18          	add    $0x18,%rsp
  40282c:	5b                   	pop    %rbx
  40282d:	5d                   	pop    %rbp
  40282e:	c3                   	retq   

000000000040282f <driver_post>:
  40282f:	53                   	push   %rbx
  402830:	48 83 ec 10          	sub    $0x10,%rsp
  402834:	4c 89 c3             	mov    %r8,%rbx
  402837:	85 c9                	test   %ecx,%ecx
  402839:	74 22                	je     40285d <driver_post+0x2e>
  40283b:	48 89 d6             	mov    %rdx,%rsi
  40283e:	bf 3b 34 40 00       	mov    $0x40343b,%edi
  402843:	b8 00 00 00 00       	mov    $0x0,%eax
  402848:	e8 e3 e2 ff ff       	callq  400b30 <printf@plt>
  40284d:	66 c7 03 4f 4b       	movw   $0x4b4f,(%rbx)
  402852:	c6 43 02 00          	movb   $0x0,0x2(%rbx)
  402856:	b8 00 00 00 00       	mov    $0x0,%eax
  40285b:	eb 43                	jmp    4028a0 <driver_post+0x71>
  40285d:	48 85 ff             	test   %rdi,%rdi
  402860:	74 30                	je     402892 <driver_post+0x63>
  402862:	80 3f 00             	cmpb   $0x0,(%rdi)
  402865:	74 2b                	je     402892 <driver_post+0x63>
  402867:	4c 89 44 24 08       	mov    %r8,0x8(%rsp)
  40286c:	48 89 14 24          	mov    %rdx,(%rsp)
  402870:	41 b9 52 34 40 00    	mov    $0x403452,%r9d
  402876:	49 89 f0             	mov    %rsi,%r8
  402879:	48 89 f9             	mov    %rdi,%rcx
  40287c:	ba 56 34 40 00       	mov    $0x403456,%edx
  402881:	be 6e 3b 00 00       	mov    $0x3b6e,%esi
  402886:	bf 28 34 40 00       	mov    $0x403428,%edi
  40288b:	e8 20 f6 ff ff       	callq  401eb0 <submitr>
  402890:	eb 0e                	jmp    4028a0 <driver_post+0x71>
  402892:	66 c7 03 4f 4b       	movw   $0x4b4f,(%rbx)
  402897:	c6 43 02 00          	movb   $0x0,0x2(%rbx)
  40289b:	b8 00 00 00 00       	mov    $0x0,%eax
  4028a0:	48 83 c4 10          	add    $0x10,%rsp
  4028a4:	5b                   	pop    %rbx
  4028a5:	c3                   	retq   
  4028a6:	66 2e 0f 1f 84 00 00 	nopw   %cs:0x0(%rax,%rax,1)
  4028ad:	00 00 00 

00000000004028b0 <__libc_csu_init>:
  4028b0:	41 57                	push   %r15
  4028b2:	41 89 ff             	mov    %edi,%r15d
  4028b5:	41 56                	push   %r14
  4028b7:	49 89 f6             	mov    %rsi,%r14
  4028ba:	41 55                	push   %r13
  4028bc:	49 89 d5             	mov    %rdx,%r13
  4028bf:	41 54                	push   %r12
  4028c1:	4c 8d 25 48 15 20 00 	lea    0x201548(%rip),%r12        # 603e10 <__frame_dummy_init_array_entry>
  4028c8:	55                   	push   %rbp
  4028c9:	48 8d 2d 48 15 20 00 	lea    0x201548(%rip),%rbp        # 603e18 <__init_array_end>
  4028d0:	53                   	push   %rbx
  4028d1:	4c 29 e5             	sub    %r12,%rbp
  4028d4:	31 db                	xor    %ebx,%ebx
  4028d6:	48 c1 fd 03          	sar    $0x3,%rbp
  4028da:	48 83 ec 08          	sub    $0x8,%rsp
  4028de:	e8 b5 e1 ff ff       	callq  400a98 <_init>
  4028e3:	48 85 ed             	test   %rbp,%rbp
  4028e6:	74 1e                	je     402906 <__libc_csu_init+0x56>
  4028e8:	0f 1f 84 00 00 00 00 	nopl   0x0(%rax,%rax,1)
  4028ef:	00 
  4028f0:	4c 89 ea             	mov    %r13,%rdx
  4028f3:	4c 89 f6             	mov    %r14,%rsi
  4028f6:	44 89 ff             	mov    %r15d,%edi
  4028f9:	41 ff 14 dc          	callq  *(%r12,%rbx,8)
  4028fd:	48 83 c3 01          	add    $0x1,%rbx
  402901:	48 39 eb             	cmp    %rbp,%rbx
  402904:	75 ea                	jne    4028f0 <__libc_csu_init+0x40>
  402906:	48 83 c4 08          	add    $0x8,%rsp
  40290a:	5b                   	pop    %rbx
  40290b:	5d                   	pop    %rbp
  40290c:	41 5c                	pop    %r12
  40290e:	41 5d                	pop    %r13
  402910:	41 5e                	pop    %r14
  402912:	41 5f                	pop    %r15
  402914:	c3                   	retq   
  402915:	90                   	nop
  402916:	66 2e 0f 1f 84 00 00 	nopw   %cs:0x0(%rax,%rax,1)
  40291d:	00 00 00 

0000000000402920 <__libc_csu_fini>:
  402920:	f3 c3                	repz retq 

Disassembly of section .fini:

0000000000402924 <_fini>:
  402924:	48 83 ec 08          	sub    $0x8,%rsp
  402928:	48 83 c4 08          	add    $0x8,%rsp
  40292c:	c3                   	retq   
